ccollections
defaultdict
p1
(c__builtin__
list
p2
tRp3
S'epsilon'
p4
F0.94999999999999996
sS'scores_max'
p5
(lp6
I0
aI0
aI15
aI15
aI15
aI15
aI155
aI155
aI155
aI130
aI130
aI130
aI35
aI35
aI35
aI35
aI35
aI70
aI70
aI70
aI70
aI70
aI70
aI165
aI165
aI165
aI165
aI165
aI165
aI40
aI40
aI20
aI20
aI20
aI20
aI20
aI20
aI95
aI95
aI95
aI75
aI75
aI75
aI75
aI110
aI110
aI110
aI110
aI40
aI40
aI40
aI40
aI105
aI105
aI105
aI105
aI105
aI160
aI160
aI160
aI160
aI160
aI160
aI210
aI210
aI210
aI210
aI85
aI85
aI85
aI50
aI50
aI50
aI50
aI60
aI60
aI60
aI40
aI40
aI55
aI55
aI55
aI55
aI55
aI55
aI55
aI10
aI10
aI10
aI140
aI140
aI140
aI140
aI135
aI135
aI135
aI135
aI135
aI135
aI160
aI160
aI160
aI50
aI50
aI5
aI5
aI15
aI15
aI15
aI15
aI15
aI310
aI310
aI310
aI310
aI310
aI310
aI285
aI285
aI55
aI55
aI55
aI55
aI5
aI5
aI5
aI5
aI65
aI65
aI65
aI65
aI65
aI65
aI130
aI130
aI130
aI15
aI15
aI15
aI15
aI15
aI140
aI140
aI0
aI0
aI0
aI0
aI125
aI125
aI125
aI125
aI125
aI125
aI125
aI125
aI510
aI510
aI510
aI510
aI50
aI50
aI50
aI50
aI50
aI110
aI110
aI110
aI110
aI110
aI130
aI130
aI130
aI130
aI110
aI110
aI110
aI110
aI110
aI110
aI110
aI165
aI165
aI165
aI165
aI105
aI105
aI105
aI105
aI105
aI105
aI105
aI105
aI105
aI105
aI305
aI305
aI305
aI305
aI85
aI85
aI45
aI45
aI45
aI45
aI45
aI45
aI150
aI150
aI150
aI150
aI150
aI130
aI130
aI130
aI130
aI130
aI130
aI130
aI500
aI500
aI500
aI500
aI125
aI125
aI125
aI125
aI40
aI40
aI40
aI40
aI40
aI40
aI40
aI40
aI40
aI260
aI260
aI260
aI260
aI260
aI100
aI100
aI100
aI30
aI30
aI30
aI30
aI30
aI165
aI165
aI165
aI165
aI85
aI85
aI85
aI85
aI85
aI125
aI125
aI125
aI125
aI50
aI50
aI50
aI50
aI50
aI50
aI170
aI170
aI170
aI60
aI60
aI60
aI60
aI30
aI30
aI30
aI105
aI105
aI105
aI105
aI105
aI105
aI110
aI110
aI110
aI110
aI55
aI55
aI55
aI105
aI105
aI105
aI105
aI110
aI110
aI110
aI110
aI45
aI45
aI45
aI45
aI45
aI210
aI210
aI210
aI80
aI80
aI80
aI80
aI135
aI135
aI135
aI135
aI135
aI135
aI30
aI30
aI30
aI50
aI50
aI50
aI50
aI50
aI50
aI50
aI75
aI75
aI75
aI120
aI120
aI120
aI120
aI120
aI120
aI120
aI120
aI120
aI120
aI225
aI225
aI225
aI225
aI110
aI110
aI50
aI50
aI50
aI50
aI50
aI185
aI185
aI185
aI185
aI185
aI400
aI400
aI55
aI55
aI55
aI35
aI35
aI10
aI10
aI10
aI10
aI10
aI10
aI10
aI165
aI165
aI50
aI50
aI50
aI75
aI75
aI75
aI75
aI75
aI75
aI260
aI260
aI260
aI135
aI135
aI135
aI135
aI135
aI135
aI135
aI245
aI245
aI245
aI245
aI245
aI245
aI245
aI135
aI135
aI135
aI135
aI135
aI180
aI180
aI180
aI180
aI180
aI180
aI180
aI180
aI460
aI460
aI460
aI460
aI460
aI460
aI485
aI485
aI485
aI485
aI30
aI30
aI30
aI75
aI75
aI75
aI75
aI150
aI150
aI150
aI75
aI75
aI75
aI75
aI65
aI65
aI30
aI30
aI30
aI30
aI105
aI105
aI105
aI105
aI135
aI135
aI45
aI45
aI30
aI30
aI30
aI30
aI180
aI180
aI25
aI25
aI25
aI25
aI125
aI125
aI125
aI125
aI125
aI95
aI95
aI95
aI95
aI95
aI95
aI95
aI615
aI615
aI615
aI35
aI35
aI35
aI35
aI35
aI35
aI35
aI35
aI35
aI465
aI465
aI465
aI105
aI105
aI105
aI105
aI105
aI105
aI240
aI240
aI15
aI15
aI15
aI15
aI15
aI190
aI190
aI190
aI190
aI355
aI355
aI355
aI355
aI355
aI355
aI355
aI355
aI355
aI255
aI255
aI255
aI255
aI65
aI65
aI65
aI65
aI65
aI75
aI75
aI75
aI75
aI75
aI75
aI220
aI220
aI220
aI220
aI205
aI205
aI205
aI205
aI65
aI65
aI65
aI65
aI65
aI65
aI65
aI135
aI135
aI135
aI105
aI105
aI105
aI105
aI105
aI105
aI105
aI105
aI305
aI305
aI305
aI305
aI305
aI305
aI305
aI380
aI380
aI380
aI50
aI50
aI50
aI50
aI50
aI50
aI50
aI50
aI50
aI440
aI440
aI440
aI35
aI35
aI35
aI35
aI35
aI330
aI330
aI330
aI330
aI330
aI330
aI180
aI180
aI180
aI180
aI180
aI125
aI125
aI125
aI125
aI75
aI75
aI30
aI30
aI30
aI35
aI35
aI20
aI20
aI30
aI30
aI30
aI30
aI140
aI140
aI140
aI140
aI140
aI140
aI140
aI140
aI535
aI535
aI535
aI65
aI65
aI65
aI65
aI65
aI65
aI65
aI150
aI150
aI150
aI150
aI150
aI150
aI160
aI160
aI20
aI20
aI20
aI20
aI20
aI20
aI20
aI415
aI415
aI415
aI415
aI10
aI10
aI10
aI85
aI85
aI85
aI85
aI85
aI85
aI85
aI480
aI480
aI480
aI480
aI480
aI480
aI480
aI480
aI450
aI450
aI450
aI450
aI45
aI45
aI45
aI45
aI110
aI110
aI110
aI75
aI75
aI75
aI75
aI75
aI190
aI190
aI190
aI190
aI190
aI135
aI135
aI135
aI50
aI50
aI50
aI55
aI55
aI55
aI55
aI95
aI95
aI95
aI95
aI95
aI120
aI120
aI20
aI20
aI20
aI15
aI15
aI15
aI15
aI185
aI185
aI185
aI40
aI40
aI40
aI15
aI15
aI15
aI20
aI20
aI20
aI20
aI105
aI105
aI105
aI35
aI35
aI35
aI35
aI35
aI35
aI35
aI150
aI150
aI150
aI150
aI120
aI120
aI120
aI120
aI90
aI90
aI90
aI45
aI45
aI45
aI5
aI5
aI50
aI50
aI50
aI50
aI320
aI320
aI320
aI75
aI75
aI75
aI75
aI155
aI155
aI155
aI155
aI155
aI155
aI155
aI155
aI155
aI155
aI155
aI555
aI555
aI555
aI555
aI55
aI55
aI55
aI55
aI55
aI55
aI130
aI130
aI15
aI15
aI15
aI15
aI15
aI130
aI130
aI130
aI130
aI130
aI120
aI120
aI120
aI120
aI45
aI45
aI50
aI50
aI50
aI50
aI20
aI20
aI20
aI25
aI25
aI25
aI25
aI25
aI155
aI155
aI155
aI155
aI155
aI305
aI305
aI305
aI305
aI305
aI225
aI225
aI225
aI225
aI15
aI15
aI15
aI15
aI65
aI65
aI65
aI50
aI50
aI50
aI50
aI50
aI50
aI50
aI265
aI265
aI265
aI265
aI20
aI20
aI20
aI20
aI20
aI20
aI160
aI160
aI160
aI50
aI50
aI50
aI120
aI120
aI120
aI120
aI30
aI30
aI30
aI30
aI30
aI30
aI85
aI85
aI85
aI85
aI85
aI85
aI85
aI85
aI240
aI240
aI240
aI240
aI240
aI240
aI240
aI240
aI240
aI240
aI240
aI240
aI95
aI95
aI95
aI95
aI105
aI105
aI105
aI105
aI105
aI245
aI245
aI245
aI245
aI85
aI85
aI85
aI85
aI50
aI50
aI50
aI50
aI65
aI65
aI65
aI65
aI50
aI50
aI50
aI50
aI50
aI50
aI50
aI260
aI260
aI260
aI260
aI120
aI120
aI120
aI120
aI120
aI180
aI180
aI180
aI20
aI20
aI20
aI20
aI40
aI40
aI40
aI40
aI40
aI40
aI115
aI115
aI115
aI30
aI30
aI30
aI30
aI120
aI120
aI120
aI120
aI155
aI155
aI155
aI155
aI105
aI105
aI105
aI105
aI35
aI35
aI35
aI35
aI35
aI35
aI35
aI450
aI450
aI450
aI65
aI65
aI65
aI65
aI65
aI65
aI250
aI250
aI250
aI250
aI110
aI110
aI110
aI110
aI80
aI80
aI80
aI80
aI110
aI110
aI110
aI110
aI65
aI65
aI65
aI50
aI50
aI50
aI50
aI50
aI50
aI50
aI50
aI80
aI80
aI80
aI80
aI80
aI225
aI225
aI15
aI15
aI15
aI15
aI110
aI110
aI110
aI80
aI80
aI80
aI80
aI80
aI285
aI285
aI285
aI285
aI110
aI110
aI0
aI0
aI0
aI0
aI0
aI0
aI0
aI0
aI260
aI260
aI260
aI260
aI260
aI260
aI140
aI140
aI140
aI140
aI35
aI35
aI35
aI55
aI55
aI55
aI55
aI55
aI55
aI210
aI210
aI210
aI210
aI80
aI80
aI80
aI80
aI80
aI85
aI85
aI85
aI85
aI120
aI120
aI120
aI10
aI10
aI10
aI10
aI10
aI10
aI10
aI375
aI375
aI375
aI55
aI55
aI55
aI55
aI180
aI180
aI180
aI30
aI30
aI30
aI30
aI85
aI85
aI85
aI85
aI85
aI205
aI205
aI205
aI80
aI80
aI80
aI80
aI80
aI80
aI80
aI160
aI160
aI160
aI160
aI85
aI85
aI85
aI85
aI90
aI90
aI90
aI90
aI110
aI110
aI110
aI20
aI20
aI20
aI20
aI20
aI20
aI255
aI255
aI255
aI255
aI80
aI80
aI80
aI80
aI55
aI55
aI55
aI85
aI85
aI85
aI55
aI55
aI55
aI55
aI55
aI185
aI185
aI185
aI185
aI85
aI85
aI85
aI85
aI85
aI85
aI410
aI410
aI410
aI410
aI80
aI80
aI80
aI80
aI80
aI80
aI80
aI155
aI155
aI155
aI155
aI155
aI50
aI50
aI50
aI75
aI75
aI75
aI75
aI75
aI75
aI125
aI125
aI125
aI125
aI75
aI75
aI75
aI75
aI75
aI95
aI95
aI95
aI85
aI85
aI85
aI40
aI40
aI40
aI40
aI40
aI40
aI40
aI135
aI135
aI135
aI135
aI135
aI85
aI85
aI85
aI15
aI15
aI15
aI30
aI30
aI30
aI30
aI30
aI30
aI220
aI220
aI220
aI80
aI80
aI80
aI80
aI80
aI80
aI80
aI80
aI95
aI95
aI95
aI95
aI95
aI95
aI95
aI95
aI95
aI210
aI210
aI55
aI55
aI55
aI55
aI55
aI55
aI130
aI130
aI130
aI130
aI130
aI130
aI170
aI170
aI170
aI30
aI30
aI30
aI30
aI30
aI30
aI60
aI60
aI60
aI60
aI80
aI80
aI45
aI45
aI45
aI45
aI45
aI45
aI45
aI45
aI155
aI155
aI15
aI15
aI40
aI40
aI40
aI40
aI75
aI75
aI75
aI90
aI90
aI90
aI90
aI80
aI80
aI80
aI80
aI100
aI100
aI20
aI20
aI20
aI20
aI20
aI65
aI65
aI65
aI15
aI15
aI15
aI35
aI35
aI35
aI35
aI35
aI35
aI115
aI115
aI115
aI115
aI115
aI115
aI160
aI160
aI160
aI160
aI160
aI160
aI105
aI105
aI105
aI105
aI130
aI130
aI130
aI130
aI35
aI35
aI35
aI35
aI60
aI60
aI60
aI60
aI60
aI105
aI105
aI105
aI105
aI105
aI105
aI105
aI260
aI260
aI260
aI35
aI35
aI35
aI35
aI40
aI40
aI40
aI40
aI40
aI40
aI355
aI355
aI355
aI355
aI65
aI65
aI65
aI65
aI80
aI80
aI80
aI80
aI80
aI80
aI80
aI80
aI80
aI460
aI460
aI460
aI460
aI60
aI60
aI45
aI45
aI45
aI45
aI45
aI40
aI40
aI40
aI40
aI40
aI40
aI40
aI145
aI145
aI30
aI30
aI30
aI30
aI30
aI30
aI65
aI65
aI65
aI50
aI50
aI50
aI0
aI0
aI0
aI0
aI0
aI0
aI0
aI0
aI260
aI260
aI260
aI35
aI35
aI35
aI75
aI75
aI75
aI75
aI75
aI75
aI225
aI225
aI80
aI80
aI80
aI10
aI10
aI10
aI10
aI10
aI10
aI355
aI355
aI355
aI50
aI50
aI50
aI50
aI50
aI50
aI195
aI195
aI195
aI195
aI110
aI110
aI110
aI110
aI110
aI135
aI135
aI135
aI135
aI145
aI145
aI145
aI145
aI145
aI145
aI145
aI165
aI165
aI165
aI165
aI135
aI135
aI135
aI135
aI80
aI80
aI80
aI80
aI120
aI120
aI120
aI35
aI35
aI35
aI35
aI35
aI35
aI35
aI195
aI195
aI195
aI195
aI195
aI125
aI125
aI125
aI125
aI125
aI125
aI205
aI205
aI205
aI205
aI105
aI105
aI105
aI105
aI105
aI100
aI100
aI35
aI35
aI35
aI35
aI60
aI60
aI60
aI60
aI60
aI60
aI320
aI320
aI320
aI320
aI110
aI110
aI110
aI110
aI80
aI80
aI80
aI80
aI165
aI165
aI165
aI165
aI155
aI155
aI155
aI155
aI155
aI155
aI155
aI255
aI255
aI255
aI255
aI140
aI140
aI140
aI140
aI140
aI260
aI260
aI20
aI20
aI20
aI20
aI20
aI20
aI20
aI20
aI520
aI520
aI50
aI50
aI50
aI50
aI50
aI50
aI50
aI515
aI515
aI515
aI515
aI515
aI210
aI210
aI210
aI30
aI30
aI30
aI30
aI135
aI135
aI135
aI135
aI135
aI120
aI120
aI120
aI120
aI155
aI155
aI155
aI155
aI155
aI110
aI110
aI110
aI110
aI110
aI110
aI110
aI110
aI110
aI110
aI130
aI130
aI130
aI130
aI30
aI30
aI30
aI30
aI30
aI30
aI195
aI195
aI195
aI195
aI110
aI110
aI110
aI110
aI110
aI110
aI110
aI125
aI125
aI125
aI55
aI55
aI55
aI55
aI60
aI60
aI60
aI60
aI60
aI60
aI60
aI165
aI165
aI165
aI20
aI20
aI20
aI20
aI30
aI30
aI15
aI15
aI15
aI20
aI20
aI20
aI20
aI20
aI260
aI260
aI260
aI260
aI110
aI110
aI110
aI110
aI110
aI110
aI280
aI280
aI280
aI15
aI15
aI15
aI15
aI85
aI85
aI85
aI85
aI85
aI120
aI120
aI120
aI120
aI120
aI120
aI185
aI185
aI185
aI185
aI185
aI185
aI85
aI85
aI85
aI85
aI85
aI85
aI140
aI140
aI140
aI20
aI20
aI20
aI20
aI20
aI140
aI140
aI140
aI85
aI85
aI85
aI85
aI75
aI75
aI75
aI75
aI75
aI180
aI180
aI180
aI180
aI135
aI135
aI135
aI135
aI135
aI110
aI110
aI110
aI20
aI20
aI20
aI20
aI65
aI65
aI65
aI65
aI65
aI65
aI65
aI65
aI140
aI140
aI140
aI75
aI75
aI75
aI75
aI75
aI105
aI105
aI5
aI5
aI5
aI5
aI60
aI60
aI60
aI65
aI65
aI65
aI65
aI55
aI55
aI55
aI55
aI55
aI120
aI120
aI120
aI120
aI120
aI120
aI120
aI185
aI185
aI185
aI185
aI185
aI155
aI155
aI155
aI45
aI45
aI45
aI45
aI45
aI45
aI80
aI80
aI80
aI80
aI240
aI240
aI240
aI55
aI55
aI55
aI55
aI55
aI55
aI55
aI140
aI140
aI15
aI15
aI15
aI15
aI15
aI15
aI15
aI15
aI15
aI265
aI265
aI105
aI105
aI105
aI105
aI105
aI30
aI30
aI40
aI40
aI40
aI40
aI40
aI40
aI170
aI170
aI170
aI170
aI110
aI110
aI110
aI110
aI35
aI35
aI35
aI35
aI10
aI10
aI10
aI60
aI60
aI60
aI60
aI60
aI60
aI355
aI355
aI105
aI105
aI105
aI105
aI105
aI105
aI105
aI380
aI380
aI380
aI380
aI380
aI380
aI380
aI255
aI255
aI255
aI255
aI255
aI255
aI255
aI315
aI315
aI315
aI80
aI80
aI80
aI80
aI80
aI80
aI80
aI80
aI80
aI80
aI210
aI210
aI210
aI210
aI70
aI70
aI85
aI85
aI85
aI85
aI85
aI135
aI135
aI135
aI135
aI135
aI105
aI105
aI105
aI105
aI60
aI60
aI60
aI60
aI60
aI60
aI355
aI355
aI355
aI90
aI90
aI90
aI90
aI90
aI90
aI230
aI230
aI230
aI230
aI110
aI110
aI110
aI110
aI110
aI135
aI135
aI135
aI135
aI135
aI135
aI40
aI40
aI40
aI40
aI40
aI135
aI135
aI135
aI35
aI35
aI35
aI35
aI120
aI120
aI120
aI90
aI90
aI90
aI90
aI90
aI90
aI205
aI205
aI205
aI60
aI60
aI30
aI30
aI35
aI35
aI35
aI35
aI90
aI90
aI90
aI90
aI120
aI120
aI120
aI120
aI120
aI120
aI390
aI390
aI390
aI390
aI65
aI65
aI65
aI65
aI65
aI65
aI75
aI75
aI75
aI75
aI75
aI75
aI125
aI125
aI125
aI125
aI120
aI120
aI5
aI5
aI5
aI5
aI65
aI65
aI65
aI65
aI30
aI30
aI30
aI30
aI30
aI30
aI30
aI255
aI255
aI255
aI255
aI85
aI85
aI85
aI85
aI135
aI135
aI20
aI20
aI20
aI20
aI20
aI130
aI130
aI130
aI130
aI100
aI100
aI100
aI100
aI100
aI100
aI135
aI135
aI135
aI10
aI10
aI10
aI10
aI20
aI20
aI20
aI50
aI50
aI50
aI50
aI50
aI50
aI50
aI35
aI35
aI35
aI35
aI35
aI35
aI35
aI60
aI60
aI60
aI60
aI60
aI60
aI60
aI185
aI185
aI185
aI45
aI45
aI45
aI45
aI45
aI210
aI210
aI210
aI15
aI15
aI15
aI15
aI15
aI15
aI115
aI115
aI115
aI115
aI110
aI110
aI110
aI110
aI110
aI110
aI365
aI365
aI365
aI365
aI365
aI365
aI365
aI150
aI150
aI150
aI145
aI145
aI145
aI30
aI30
aI30
aI30
aI30
aI30
aI130
aI130
aI130
aI130
aI5
aI5
aI5
aI65
aI65
aI65
aI65
aI100
aI100
aI100
aI110
aI110
aI30
aI30
aI30
aI30
aI50
aI50
aI50
aI50
aI15
aI15
aI30
aI30
aI30
aI35
aI35
aI35
aI35
aI55
aI55
aI55
aI50
aI50
aI50
aI50
aI110
aI110
aI110
aI110
aI40
aI40
aI40
aI40
aI40
aI40
aI40
aI40
aI610
aI610
aI610
aI35
aI35
aI35
aI35
aI35
aI35
aI335
aI335
aI335
aI20
aI20
aI20
aI20
aI100
aI100
aI100
aI100
aI100
aI65
aI65
aI65
aI65
aI65
aI70
aI70
aI70
aI70
aI55
aI55
aI55
aI55
aI55
aI50
aI50
aI50
aI50
aI50
aI50
aI20
aI20
aI20
aI20
aI20
aI20
aI95
aI95
aI95
aI100
aI100
aI100
aI100
aI55
aI55
aI55
aI55
aI65
aI65
aI65
aI65
aI65
aI65
aI65
aI200
aI200
aI200
aI200
aI15
aI15
aI15
aI15
aI15
aI355
aI355
aI355
aI105
aI105
aI105
aI105
aI80
aI80
aI80
aI50
aI50
aI50
aI50
aI50
aI60
aI60
aI60
aI60
aI125
aI125
aI125
aI125
aI70
aI70
aI70
aI70
aI70
aI70
aI70
aI70
aI330
aI330
aI330
aI330
aI330
aI330
aI135
aI135
aI135
aI135
aI135
aI135
aI135
aI135
aI135
aI135
aI135
aI65
aI65
aI65
aI65
aI135
aI135
aI135
aI135
aI105
aI105
aI105
aI105
aI55
aI55
aI40
aI40
aI40
aI40
aI55
aI55
aI55
aI55
aI125
aI125
aI125
aI125
aI125
aI125
aI95
aI95
aI95
aI20
aI20
aI20
aI45
aI45
aI45
aI45
aI45
aI45
aI45
aI45
aI605
aI605
aI605
aI75
aI75
aI75
aI75
aI45
aI45
aI45
aI45
aI45
aI55
aI55
aI55
aI55
aI55
aI170
aI170
aI170
aI170
aI170
aI100
aI100
aI15
aI15
aI15
aI15
aI15
aI125
aI125
aI125
aI125
aI125
aI125
aI125
aI230
aI230
aI230
aI75
aI75
aI75
aI75
aI75
aI110
aI110
aI110
aI110
aI80
aI80
aI80
aI80
aI80
aI340
aI340
aI340
aI20
aI20
aI15
aI15
aI30
aI30
aI30
aI30
aI30
aI185
aI185
aI185
aI185
aI185
aI115
aI115
aI115
aI115
aI45
aI45
aI45
aI45
aI20
aI20
aI20
aI30
aI30
aI30
aI30
aI45
aI45
aI45
aI40
aI40
aI40
aI40
aI45
aI45
aI45
aI45
aI45
aI275
aI275
aI275
aI275
aI80
aI80
aI80
aI10
aI10
aI10
aI10
aI10
aI10
aI10
aI260
aI260
aI260
aI260
aI55
aI55
aI55
aI20
aI20
aI20
aI20
aI20
aI20
aI355
aI355
aI355
aI355
aI355
aI355
aI155
aI155
aI155
aI50
aI50
aI50
aI50
aI75
aI75
aI75
aI75
aI75
aI75
aI215
aI215
aI215
aI80
aI80
aI80
aI80
aI65
aI65
aI65
aI95
aI95
aI95
aI95
aI55
aI55
aI55
aI50
aI50
aI50
aI50
aI50
aI50
aI50
aI220
aI220
aI220
aI220
aI220
aI150
aI150
aI50
aI50
aI50
aI50
aI50
aI50
aI135
aI135
aI135
aI135
aI105
aI105
aI105
aI30
aI30
aI30
aI40
aI40
aI40
aI40
aI40
aI40
aI40
aI155
aI155
aI155
aI155
aI155
aI95
aI95
aI95
aI95
aI15
aI15
aI15
aI15
aI15
aI165
aI165
aI165
aI165
aI165
aI165
aI95
aI95
aI95
aI95
aI110
aI110
aI60
aI60
aI60
aI20
aI20
aI20
aI20
aI20
aI20
aI20
aI125
aI125
aI125
aI125
aI125
aI90
aI90
aI90
aI90
aI65
aI65
aI50
aI50
aI50
aI50
aI50
aI50
aI50
aI560
aI560
aI560
aI560
aI560
aI560
aI560
aI560
aI255
aI255
aI255
aI255
aI105
aI105
aI105
aI105
aI105
aI105
aI105
aI105
aI145
aI145
aI145
aI35
aI35
aI35
aI35
aI40
aI40
aI40
aI40
aI115
aI115
aI115
aI115
aI115
aI115
aI115
aI115
aI430
aI430
aI430
aI120
aI120
aI120
aI120
aI20
aI20
aI20
aI20
aI20
aI65
aI65
aI65
aI40
aI40
aI40
aI40
aI105
aI105
aI105
aI105
aI105
aI70
aI70
aI70
aI70
aI40
aI40
aI40
aI40
aI40
aI140
aI140
aI140
aI30
aI30
aI30
aI30
aI75
aI75
aI75
aI50
aI50
aI50
aI50
aI50
aI35
aI35
aI50
aI50
aI50
aI50
aI105
aI105
aI105
aI105
aI105
aI105
aI105
aI345
aI345
aI345
aI345
aI120
aI120
aI120
aI120
aI120
aI120
aI125
aI125
aI125
aI90
aI90
aI90
aI65
aI65
aI65
aI65
aI65
aI225
aI225
aI225
aI225
aI30
aI30
aI30
aI30
aI30
aI30
aI30
aI185
aI185
aI185
aI185
aI185
aI130
aI130
aI130
aI130
aI130
aI130
aI130
aI275
aI275
aI275
aI105
aI105
aI105
aI105
aI105
aI130
aI130
aI130
aI130
aI50
aI50
aI50
aI50
aI50
aI115
aI115
aI115
aI115
aI115
aI190
aI190
aI190
aI190
aI190
aI190
aI175
aI175
aI175
aI175
aI175
aI70
aI70
aI70
aI70
aI95
aI95
aI95
aI95
aI95
aI55
aI55
aI55
aI55
aI60
aI60
aI60
aI60
aI60
aI145
aI145
aI50
aI50
aI50
aI50
aI50
aI60
aI60
aI60
aI60
aI60
aI60
aI60
aI135
aI135
aI135
aI135
aI135
aI105
aI105
aI105
aI105
aI105
aI50
aI50
aI50
aI50
aI50
aI110
aI110
aI110
aI65
aI65
aI65
aI30
aI30
aI30
aI30
aI30
aI30
aI180
aI180
aI180
aI180
aI180
aI180
aI200
aI200
aI200
aI200
aI45
aI45
aI30
aI30
aI30
aI30
aI105
aI105
aI105
aI60
aI60
aI60
aI60
aI0
aI0
aI0
aI0
aI75
aI75
aI75
aI75
aI75
aI185
aI185
aI185
aI50
aI50
aI50
aI15
aI15
aI15
aI15
aI45
aI45
aI45
aI105
aI105
aI105
aI105
aI125
aI125
aI125
aI20
aI20
aI20
aI20
aI35
aI35
aI35
aI30
aI30
aI30
aI30
aI30
aI30
aI105
aI105
aI105
aI105
aI65
aI65
aI65
aI65
aI35
aI35
aI35
aI35
aI35
aI75
aI75
aI75
aI75
aI20
aI20
aI20
aI20
aI20
aI20
aI20
aI20
aI20
aI20
aI400
aI400
aI400
aI400
aI400
aI400
aI225
aI225
aI225
aI225
aI225
aI225
aI345
aI345
aI345
aI100
aI100
aI100
aI100
aI75
aI75
aI75
aI75
aI25
aI25
aI25
aI25
aI35
aI35
aI35
aI85
aI85
aI85
aI85
aI55
aI55
aI55
aI55
aI100
aI100
aI100
aI5
aI5
aI5
aI5
aI125
aI125
aI90
aI90
aI90
aI5
aI5
aI5
aI5
aI145
aI145
aI145
aI145
aI20
aI20
aI20
aI70
aI70
aI70
aI25
aI25
aI25
aI125
aI125
aI125
aI125
aI125
aI65
aI65
aI65
aI40
aI40
aI40
aI40
aI40
aI40
aI120
aI120
aI120
aI120
aI120
aI120
aI240
aI240
aI240
aI240
aI240
aI240
aI240
aI240
aI240
aI240
aI60
aI60
aI60
aI25
aI25
aI25
aI25
aI25
aI75
aI75
aI75
aI75
aI30
aI30
aI30
aI5
aI5
aI5
aI5
aI110
aI110
aI110
aI15
aI15
aI15
aI35
aI35
aI45
aI45
aI45
aI45
aI105
aI105
aI105
aI105
aI105
aI105
aI145
aI145
aI145
aI135
aI135
aI135
aI135
aI10
aI10
aI35
aI35
aI35
aI10
aI10
aI10
aI10
aI45
aI45
aI15
aI15
aI15
aI15
aI10
aI10
aI10
aI10
aI110
aI110
aI110
aI55
aI55
aI55
aI70
aI70
aI70
aI70
aI70
aI70
aI70
aI160
aI160
aI160
aI30
aI30
aI30
aI30
aI30
aI30
aI30
aI215
aI215
aI215
aI215
aI215
aI215
aI225
aI225
aI225
aI225
aI225
aI225
aI225
aI280
aI280
aI280
aI280
aI280
aI280
aI30
aI30
aI30
aI30
aI105
aI105
aI105
aI35
aI35
aI35
aI35
aI35
aI230
aI230
aI230
aI230
aI45
aI45
aI45
aI45
aI75
aI75
aI35
aI35
aI10
aI10
aI15
aI15
aI15
aI15
aI15
aI15
aI110
aI110
aI110
aI110
aI120
aI120
aI120
aI120
aI65
aI65
aI65
aI65
aI80
aI80
aI80
aI80
aI80
aI120
aI120
aI120
aI10
aI10
aI10
aI10
aI10
aI10
aI10
aI175
aI175
aI175
aI175
aI90
aI90
aI90
aI90
aI90
aI90
aI90
aI370
aI370
aI370
aI370
aI370
aI165
aI165
aI165
aI165
aI75
aI75
aI75
aI20
aI20
aI20
aI20
aI65
aI65
aI65
aI65
aI95
aI95
aI95
aI95
aI95
aI85
aI85
aI85
aI85
aI85
aI85
aI155
aI155
aI155
aI155
aI35
aI35
aI35
aI20
aI20
aI20
aI30
aI30
aI30
aI5
aI5
aI5
aI5
aI40
aI40
aI40
aI40
aI40
aI40
aI40
aI235
aI235
aI235
aI235
aI235
aI235
aI90
aI90
aI90
aI90
aI135
aI135
aI135
aI135
aI15
aI15
aI5
aI5
aI5
aI5
aI5
aI140
aI140
aI140
aI140
aI140
aI75
aI75
aI75
aI35
aI35
aI35
aI80
aI80
aI80
aI10
aI10
aI10
aI30
aI30
aI30
aI30
aI30
aI30
aI30
aI175
aI175
aI175
aI175
aI55
aI55
aI55
aI55
aI55
aI55
aI135
aI135
aI135
aI150
aI150
aI150
aI150
aI130
aI130
aI130
aI130
aI130
aI155
aI155
aI155
aI65
aI65
aI65
aI65
aI65
aI65
aI265
aI265
aI265
aI265
aI110
aI110
aI110
aI5
aI5
aI5
aI5
aI5
aI170
aI170
aI170
aI15
aI15
aI15
aI15
aI15
aI415
aI415
aI415
aI415
aI20
aI20
aI35
aI35
aI35
aI35
aI75
aI75
aI30
aI30
aI30
aI30
aI25
aI25
aI25
aI5
aI5
aI5
aI5
aI35
aI35
aI35
aI30
aI30
aI30
aI30
aI30
aI30
aI30
aI30
aI240
aI240
aI240
aI240
aI240
aI240
aI45
aI45
aI45
aI45
aI85
aI85
aI85
aI85
aI85
aI155
aI155
aI155
aI155
aI120
aI120
aI15
aI15
aI15
aI105
aI105
aI105
aI105
aI45
aI45
aI20
aI20
aI20
aI80
aI80
aI80
aI80
aI5
aI5
aI5
aI5
aI5
aI5
aI120
aI120
aI120
aI120
aI120
aI120
aI220
aI220
aI220
aI220
aI220
aI135
aI135
aI135
aI30
aI30
aI55
aI55
aI55
aI55
aI30
aI30
aI30
aI30
aI30
aI110
aI110
aI110
aI110
aI45
aI45
aI45
aI45
aI70
aI70
aI70
aI70
aI130
aI130
aI130
aI130
aI130
aI90
aI90
aI90
aI15
aI15
aI15
aI15
aI15
aI45
aI45
aI45
aI45
aI140
aI140
aI35
aI35
aI35
aI35
aI35
aI20
aI20
aI20
aI20
aI75
aI75
aI75
aI75
aI75
aI105
aI105
aI105
aI20
aI20
aI20
aI105
aI105
aI55
aI55
aI55
aI55
aI35
aI35
aI35
aI35
aI80
aI80
aI80
aI20
aI20
aI35
aI35
aI35
aI40
aI40
aI40
aI40
aI105
aI105
aI105
aI105
aI160
aI160
aI160
aI30
aI30
aI30
aI30
aI30
aI170
aI170
aI170
aI170
aI15
aI15
aI30
aI30
aI30
aI30
aI30
aI30
aI30
aI30
aI465
aI465
aI465
aI465
aI80
aI80
aI80
aI20
aI20
aI20
aI20
aI65
aI65
aI65
aI65
aI65
aI65
aI65
aI80
aI80
aI80
aI80
aI105
aI105
aI105
aI105
aI55
aI55
aI55
aI55
aI125
aI125
aI125
aI30
aI30
aI30
aI30
aI30
aI150
aI150
aI150
aI150
aI35
aI35
aI35
aI35
aI40
aI40
aI40
aI40
aI95
aI95
aI95
aI95
aI95
aI95
aI95
aI260
aI260
aI260
aI260
aI260
aI100
aI100
aI100
aI100
aI100
aI100
aI100
aI100
aI255
aI255
aI255
aI70
aI70
aI35
aI35
aI35
aI45
aI45
aI45
aI40
aI40
aI40
aI80
aI80
aI80
aI80
aI80
aI35
aI35
aI35
aI35
aI75
aI75
aI75
aI40
aI40
aI40
aI40
aI40
aI40
aI175
aI175
aI175
aI175
aI175
aI370
aI370
aI370
aI60
aI60
aI60
aI60
aI60
aI60
aI260
aI260
aI260
aI260
aI260
aI260
aI260
aI240
aI240
aI240
aI240
aI240
aI65
aI65
aI65
aI65
aI65
aI65
aI65
aI235
aI235
aI235
aI235
aI235
aI125
aI125
aI125
aI125
aI125
aI125
aI230
aI230
aI30
aI30
aI30
aI30
aI155
aI155
aI155
aI155
aI155
aI60
aI60
aI60
aI60
aI60
aI60
aI180
aI180
aI180
aI180
aI55
aI55
aI55
aI85
aI85
aI85
aI45
aI45
aI30
aI30
aI15
aI15
aI15
aI15
aI15
aI15
aI15
aI75
aI75
aI75
aI75
aI75
aI75
aI195
aI195
aI195
aI195
aI25
aI25
aI25
aI25
aI125
aI125
aI125
aI125
aI55
aI55
aI55
aI55
aI105
aI105
aI105
aI105
aI105
aI105
aI50
aI50
aI50
aI35
aI35
aI35
aI35
aI15
aI15
aI15
aI15
aI15
aI15
aI90
aI90
aI90
aI60
aI60
aI60
aI60
aI110
aI110
aI110
aI110
aI110
aI110
aI120
aI120
aI120
aI120
aI155
aI155
aI155
aI0
aI0
aI0
aI0
aI0
aI0
aI410
aI410
aI410
aI410
aI410
aI410
aI185
aI185
aI40
aI40
aI40
aI40
aI80
aI80
aI80
aI85
aI85
aI85
aI85
aI85
aI85
aI150
aI150
aI150
aI35
aI35
aI35
aI45
aI45
aI45
aI45
aI45
aI75
aI75
aI75
aI75
aI75
aI75
aI75
aI280
aI280
aI280
aI280
aI10
aI10
aI10
aI15
aI15
aI15
aI15
aI15
aI70
aI70
aI50
aI50
aI50
aI50
aI50
aI165
aI165
aI165
aI5
aI5
aI5
aI5
aI5
aI120
aI120
aI120
aI120
aI90
aI90
aI90
aI90
aI30
aI30
aI30
aI30
aI30
aI240
aI240
aI240
aI105
aI105
aI105
aI105
aI40
aI40
aI40
aI40
aI40
aI40
aI375
aI375
aI375
aI375
aI375
aI45
aI45
aI45
aI45
aI45
aI165
aI165
aI165
aI165
aI165
aI125
aI125
aI125
aI5
aI5
aI5
aI5
aI5
aI125
aI125
aI125
aI125
aI125
aI125
aI125
aI125
aI125
aI125
aI125
aI125
aI125
aI125
aI125
aI315
aI315
aI315
aI315
aI315
aI315
aI315
aI415
aI415
aI415
aI415
aI85
aI85
aI85
aI85
aI85
aI85
aI85
aI85
aI85
aI325
aI325
aI325
aI325
aI95
aI95
aI95
aI95
aI95
aI95
aI165
aI165
aI165
aI165
aI95
aI95
aI95
aI95
aI80
aI80
aI80
aI80
aI20
aI20
aI20
aI55
aI55
aI55
aI55
aI45
aI45
aI15
aI15
aI15
aI30
aI30
aI30
aI30
aI30
aI30
aI30
aI375
aI375
aI375
aI30
aI30
aI30
aI30
aI30
aI30
aI30
aI40
aI40
aI40
aI40
aI135
aI135
aI135
aI55
aI55
aI55
aI55
aI55
aI55
aI275
aI275
aI275
aI275
aI80
aI80
aI80
aI0
aI0
aI0
aI5
aI5
aI30
aI30
aI30
aI30
aI30
aI30
aI30
aI200
aI200
aI200
aI70
aI70
aI70
aI70
aI60
aI60
aI60
aI60
aI60
aI60
aI30
aI30
aI30
aI30
aI30
aI170
aI170
aI170
aI170
aI100
aI100
aI100
aI100
aI100
aI15
aI15
aI15
aI15
aI15
aI15
aI15
aI300
aI300
aI300
aI300
aI300
aI300
aI300
aI300
aI225
aI225
aI225
aI225
aI225
aI140
aI140
aI140
aI140
aI35
aI35
aI35
aI5
aI5
aI5
aI70
aI70
aI70
aI70
aI70
aI70
aI75
aI75
aI75
aI75
aI55
aI55
aI20
aI20
aI20
aI30
aI30
aI30
aI35
aI35
aI35
aI55
aI55
aI55
aI15
aI15
aI15
aI15
aI15
aI165
aI165
aI165
aI165
aI165
aI165
aI130
aI130
aI130
aI40
aI40
aI40
aI40
aI0
aI0
aI0
aI0
aI0
aI130
aI130
aI130
aI10
aI10
aI10
aI10
aI10
aI10
aI225
aI225
aI225
aI225
aI45
aI45
aI45
aI45
aI45
aI45
aI45
aI45
aI45
aI110
aI110
aI110
aI110
aI110
aI110
aI110
aI120
aI120
aI120
aI120
aI65
aI65
aI65
aI65
aI55
aI55
aI55
aI55
aI110
aI110
aI110
aI110
aI110
aI110
aI320
aI320
aI320
aI320
aI105
aI105
aI105
aI105
aI80
aI80
aI80
aI45
aI45
aI45
aI60
aI60
aI60
aI60
aI145
aI145
aI145
aI145
aI75
aI75
aI75
aI60
aI60
aI60
aI60
aI60
aI325
aI325
aI55
aI55
aI55
aI5
aI5
aI5
aI5
aI35
aI35
aI35
aI30
aI30
aI30
aI30
aI40
aI40
aI40
aI5
aI5
aI5
aI5
aI5
aI105
aI105
aI105
aI105
aI105
aI105
aI105
aI105
aI30
aI30
aI30
aI20
aI20
aI20
aI20
aI20
aI100
aI100
aI100
aI100
aI100
aI100
aI100
aI360
aI360
aI360
aI360
aI120
aI120
aI120
aI165
aI165
aI165
aI35
aI35
aI35
aI35
aI75
aI75
aI75
aI75
aI75
aI105
aI105
aI30
aI30
aI30
aI30
aI30
aI30
aI30
aI30
aI30
aI30
aI95
aI95
aI95
aI95
aI95
aI125
aI125
aI125
aI125
aI125
aI125
aI125
aI125
aI125
aI125
aI125
aI125
aI165
aI165
aI165
aI40
aI40
aI40
aI40
aI40
aI40
aI40
aI275
aI275
aI275
aI275
aI65
aI65
aI65
aI75
aI75
aI75
aI75
aI75
aI80
aI80
aI80
aI80
aI55
aI55
aI55
aI55
aI55
aI210
aI210
aI210
aI210
aI165
aI165
aI165
aI165
aI165
aI165
aI165
aI165
aI165
aI215
aI215
aI215
aI215
aI50
aI50
aI50
aI60
aI60
aI80
aI80
aI80
aI80
aI120
aI120
aI50
aI50
aI50
aI50
aI5
aI5
aI5
aI5
aI5
aI5
aI5
aI5
aI170
aI170
aI170
aI170
aI100
aI100
aI100
aI45
aI45
aI45
aI45
aI105
aI105
aI105
aI105
aI105
aI105
aI105
aI105
aI105
aI110
aI110
aI110
aI110
aI60
aI60
aI60
aI60
aI145
aI145
aI145
aI145
aI145
aI145
aI185
aI185
aI185
aI185
aI80
aI80
aI80
aI80
aI155
aI155
aI155
aI155
aI10
aI10
aI10
aI40
aI40
aI40
aI5
aI5
aI5
aI5
aI5
aI5
aI5
aI5
aI5
aI5
aI5
aI5
aI65
aI65
aI65
aI65
aI15
aI15
aI45
aI45
aI45
aI45
aI45
aI45
aI110
aI110
aI110
aI110
aI95
aI95
aI95
aI95
aI55
aI55
aI55
aI25
aI25
aI25
aI60
aI60
aI60
aI60
aI35
aI35
aI35
aI35
aI125
aI125
aI125
aI20
aI20
aI20
aI105
aI105
aI105
aI105
aI340
aI340
aI340
aI340
aI50
aI50
aI50
aI50
aI50
aI50
aI50
aI155
aI155
aI155
aI155
aI80
aI80
aI80
aI80
aI80
aI80
aI80
aI170
aI170
aI170
aI5
aI5
aI5
aI5
aI5
aI125
aI125
aI125
aI125
aI125
aI125
aI125
aI375
aI375
aI375
aI375
aI375
aI375
aI375
aI185
aI185
aI185
aI65
aI65
aI65
aI65
aI75
aI75
aI75
aI50
aI50
aI50
aI50
aI50
aI50
aI75
aI75
aI75
aI75
aI75
aI75
aI190
aI190
aI55
aI55
aI55
aI55
aI55
aI55
aI55
aI165
aI165
aI30
aI30
aI30
aI30
aI35
aI35
aI5
aI5
aI5
aI5
aI5
aI5
aI5
aI145
aI145
aI145
aI145
aI145
aI145
aI145
aI145
aI80
aI80
aI80
aI80
aI110
aI110
aI110
aI110
aI110
aI110
aI65
aI65
aI65
aI65
aI155
aI155
aI155
aI155
aI10
aI10
aI10
aI10
aI10
aI20
aI20
aI20
aI30
aI30
aI30
aI30
aI30
aI135
aI135
aI135
aI135
aI135
aI155
aI155
aI155
aI5
aI5
aI5
aI5
aI25
aI25
aI25
aI25
aI140
aI140
aI140
aI140
aI110
aI110
aI110
aI110
aI0
aI0
aI0
aI30
aI30
aI30
aI30
aI45
aI45
aI45
aI45
aI65
aI65
aI65
aI65
aI35
aI35
aI35
aI35
aI40
aI40
aI40
aI40
aI40
aI40
aI110
aI110
aI110
aI110
aI50
aI50
aI50
aI15
aI15
aI15
aI15
aI35
aI35
aI35
aI35
aI35
aI35
aI25
aI25
aI25
aI25
aI25
aI25
aI160
aI160
aI160
aI55
aI55
aI55
aI55
aI120
aI120
aI30
aI30
aI30
aI80
aI80
aI80
aI80
aI80
aI180
aI180
aI180
aI180
aI180
aI180
aI80
aI80
aI80
aI45
aI45
aI45
aI10
aI10
aI10
aI10
aI105
aI105
aI105
aI105
aI40
aI40
aI40
aI40
aI120
aI120
aI120
aI120
aI120
aI120
aI75
aI75
aI15
aI15
aI15
aI15
aI15
aI15
aI15
aI15
aI210
aI210
aI210
aI210
aI210
aI135
aI135
aI135
aI135
aI90
aI90
aI90
aI90
aI120
aI120
aI120
aI120
aI105
aI105
aI105
aI105
aI95
aI95
aI95
aI95
aI80
aI80
aI80
aI80
aI80
aI135
aI135
aI135
aI135
aI60
aI60
aI105
aI105
aI105
aI5
aI5
aI5
aI5
aI5
aI85
aI85
aI95
aI95
aI95
aI95
aI70
aI70
aI70
aI70
aI70
aI70
aI140
aI140
aI140
aI140
aI140
aI140
aI185
aI185
aI185
aI185
aI105
aI105
aI105
aI105
aI65
aI65
aI65
aI65
aI55
aI55
aI55
aI55
aI55
aI55
aI95
aI95
aI35
aI35
aI35
aI35
aI35
aI35
aI195
aI195
aI195
aI195
aI85
aI85
aI85
aI45
aI45
aI45
aI45
aI45
aI45
aI180
aI180
aI180
aI180
aI45
aI45
aI30
aI30
aI30
aI30
aI50
aI50
aI50
aI50
aI50
aI50
aI50
aI50
aI55
aI55
aI55
aI55
aI55
aI50
aI50
aI50
aI45
aI45
aI45
aI50
aI50
aI50
aI50
aI45
aI45
aI45
aI45
aI125
aI125
aI125
aI125
aI125
aI150
aI150
aI150
aI25
aI25
aI25
aI25
aI25
aI25
aI25
aI150
aI150
aI150
aI150
aI180
aI180
aI180
aI180
aI80
aI80
aI80
aI80
aI35
aI35
aI15
aI15
aI15
aI15
aI60
aI60
aI60
aI35
aI35
aI20
aI20
aI20
aI20
aI20
aI65
aI65
aI65
aI120
aI120
aI120
aI120
aI120
aI75
aI75
aI75
aI50
aI50
aI50
aI25
aI25
aI25
aI25
aI25
aI25
aI25
aI25
aI400
aI400
aI400
aI30
aI30
aI45
aI45
aI45
aI45
aI45
aI130
aI130
aI130
aI35
aI35
aI35
aI35
aI35
aI145
aI145
aI145
aI145
aI80
aI80
aI80
aI80
aI35
aI35
aI35
aI35
aI135
aI135
aI135
aI135
aI135
aI135
aI150
aI150
aI15
aI15
aI35
aI35
aI35
aI35
aI35
aI115
aI115
aI115
aI115
aI80
aI80
aI80
aI10
aI10
aI10
aI10
aI10
aI35
aI35
aI35
aI35
aI35
aI110
aI110
aI15
aI15
aI15
aI15
aI15
aI95
aI95
aI95
aI95
aI35
aI35
aI35
aI35
aI35
aI35
aI155
aI155
aI155
aI20
aI20
aI20
aI20
aI25
aI25
aI25
aI50
aI50
aI50
aI50
aI105
aI105
aI105
aI105
aI55
aI55
aI55
aI55
aI55
aI55
aI55
aI55
aI140
aI140
aI140
aI45
aI45
aI45
aI45
aI45
aI45
aI230
aI230
aI230
aI5
aI5
aI5
aI5
aI15
aI15
aI15
aI15
aI15
aI15
aI10
aI10
aI20
aI20
aI20
aI20
aI20
aI20
aI180
aI180
aI180
aI45
aI45
aI45
aI45
aI45
aI45
aI45
aI45
aI45
aI45
aI430
aI430
aI430
aI430
aI430
aI430
aI165
aI165
aI165
aI165
aI165
aI145
aI145
aI145
aI30
aI30
aI30
aI30
aI110
aI110
aI110
aI110
aI110
aI110
aI110
aI110
aI110
aI110
aI110
aI90
aI90
aI60
aI60
aI60
aI60
aI60
aI60
aI65
aI65
aI30
aI30
aI30
aI30
aI30
aI30
aI185
aI185
aI185
aI185
aI10
aI10
aI10
aI10
aI45
aI45
aI45
aI45
aI90
aI90
aI90
aI90
aI110
aI110
aI110
aI110
aI110
aI110
aI235
aI235
aI235
aI235
aI235
aI235
aI120
aI120
aI120
aI120
aI120
aI50
aI50
aI50
aI20
aI20
aI20
aI20
aI125
aI125
aI125
aI125
aI125
aI125
aI390
aI390
aI390
aI390
aI390
aI165
aI165
aI165
aI165
aI60
aI60
aI60
aI60
aI55
aI55
aI55
aI80
aI80
aI80
aI25
aI25
aI25
aI25
aI25
aI25
aI25
aI25
aI225
aI225
aI225
aI225
aI110
aI110
aI110
aI110
aI110
aI125
aI125
aI125
aI80
aI80
aI60
aI60
aI60
aI60
aI85
aI85
aI85
aI30
aI30
aI20
aI20
aI20
aI20
aI95
aI95
aI95
aI95
aI210
aI210
aI210
aI210
aI40
aI40
aI35
aI35
aI35
aI50
aI50
aI50
aI40
aI40
aI40
aI35
aI35
aI35
aI35
aI65
aI65
aI65
aI65
aI165
aI165
aI165
aI165
aI165
aI130
aI130
aI130
aI45
aI45
aI45
aI45
aI45
aI45
aI135
aI135
aI135
aI135
aI60
aI60
aI75
aI75
aI75
aI65
aI65
aI65
aI65
aI135
aI135
aI135
aI20
aI20
aI20
aI20
aI20
aI65
aI65
aI65
aI65
aI145
aI145
aI145
aI10
aI10
aI30
aI30
aI30
aI20
aI20
aI20
aI20
aI10
aI10
aI10
aI10
aI10
aI65
aI65
aI65
aI65
aI65
aI65
aI65
aI235
aI235
aI235
aI235
aI235
aI235
aI235
aI230
aI230
aI35
aI35
aI35
aI35
aI35
aI155
aI155
aI155
aI0
aI0
aI0
aI0
aI0
aI0
aI0
aI0
aI0
aI475
aI475
aI475
aI475
aI475
aI165
aI165
aI165
aI165
aI95
aI95
aI95
aI95
aI95
aI95
aI270
aI270
aI20
aI20
aI20
aI20
aI30
aI30
aI30
aI30
aI30
aI240
aI240
aI240
aI5
aI5
aI5
aI5
aI35
aI35
aI35
aI10
aI10
aI10
aI10
aI50
aI50
aI50
aI50
aI50
aI110
aI110
aI110
aI20
aI20
aI30
aI30
aI30
aI30
aI45
aI45
aI45
aI45
aI125
aI125
aI125
aI125
aI125
aI125
aI125
aI225
aI225
aI225
aI225
aI225
aI225
aI385
aI385
aI385
aI385
aI105
aI105
aI105
aI105
aI120
aI120
aI120
aI120
aI80
aI80
aI80
aI80
aI60
aI60
aI60
aI60
aI60
aI135
aI135
aI135
aI135
aI135
aI135
aI135
aI285
aI285
aI5
aI5
aI5
aI5
aI50
aI50
aI50
aI50
aI50
aI50
aI50
aI235
aI235
aI235
aI15
aI15
aI15
aI15
aI15
aI15
aI15
aI290
aI290
aI290
aI290
aI290
aI290
aI185
aI185
aI185
aI10
aI10
aI10
aI5
aI5
aI25
aI25
aI25
aI25
aI120
aI120
aI120
aI120
aI125
aI125
aI25
aI25
aI25
aI25
aI50
aI50
aI50
aI50
aI50
aI150
aI150
aI150
aI150
aI150
aI155
aI155
aI155
aI155
aI195
aI195
aI195
aI195
aI80
aI80
aI55
aI55
aI55
aI105
aI105
aI105
aI105
aI165
aI165
aI30
aI30
aI30
aI30
aI45
aI45
aI45
aI35
aI35
aI35
aI35
aI35
aI45
aI45
aI45
aI45
aI45
aI45
aI75
aI75
aI75
aI75
aI75
aI140
aI140
aI140
aI140
aI140
aI160
aI160
aI160
aI160
aI160
aI30
aI30
aI10
aI10
aI10
aI10
aI50
aI50
aI50
aI85
aI85
aI85
aI85
aI120
aI120
aI30
aI30
aI30
aI30
aI20
aI20
aI20
aI20
aI20
aI20
aI20
aI350
aI350
aI350
aI350
aI350
aI350
aI350
aI85
aI85
aI85
aI85
aI85
aI85
aI420
aI420
aI420
aI50
aI50
aI50
aI15
aI15
aI50
aI50
aI50
aI50
aI45
aI45
aI45
aI45
aI45
aI45
aI270
aI270
aI270
aI270
aI85
aI85
aI85
aI85
aI85
aI85
aI300
aI300
aI300
aI300
aI300
aI10
aI10
aI35
aI35
aI35
aI35
aI35
aI35
aI45
aI45
aI45
aI45
aI155
aI155
aI155
aI155
aI100
aI100
aI50
aI50
aI50
aI50
aI50
aI50
aI50
aI100
aI100
aI100
aI100
aI100
aI345
aI345
aI345
aI345
aI345
aI130
aI130
aI130
aI105
aI105
aI105
aI105
aI110
aI110
aI110
aI60
aI60
aI60
aI35
aI35
aI35
aI35
aI35
aI35
aI35
aI205
aI205
aI205
aI205
aI205
aI205
aI360
aI360
aI360
aI360
aI360
aI360
aI360
aI360
aI215
aI215
aI30
aI30
aI30
aI30
aI30
aI115
aI115
aI115
aI115
aI40
aI40
aI40
aI85
aI85
aI85
aI85
aI135
aI135
aI40
aI40
aI40
aI40
aI40
aI40
aI170
aI170
aI170
aI170
aI170
aI60
aI60
aI60
aI60
aI60
aI60
aI60
aI130
aI130
aI130
aI130
aI130
aI130
aI130
aI130
aI130
aI130
aI130
aI540
aI540
aI540
aI65
aI65
aI65
aI65
aI80
aI80
aI80
aI80
aI80
aI180
aI180
aI180
aI180
aI180
aI180
aI180
aI180
aI170
aI170
aI170
aI170
aI140
aI140
aI140
aI45
aI45
aI45
aI45
aI45
aI45
aI45
aI220
aI220
aI220
aI35
aI35
aI35
aI35
aI50
aI50
aI50
aI50
aI50
aI50
aI220
aI220
aI220
aI220
aI115
aI115
aI115
aI115
aI110
aI110
aI110
aI110
aI35
aI35
aI35
aI35
aI35
aI35
aI35
aI35
aI35
aI230
aI230
aI30
aI30
aI30
aI50
aI50
aI50
aI50
aI25
aI25
aI25
aI25
aI50
aI50
aI15
aI15
aI15
aI15
aI80
aI80
aI80
aI80
aI135
aI135
aI55
aI55
aI55
aI55
aI55
aI55
aI55
aI160
aI160
aI160
aI125
aI125
aI125
aI125
aI125
aI125
aI125
aI155
aI155
aI155
aI80
aI80
aI80
aI80
aI80
aI145
aI145
aI145
aI145
aI65
aI65
aI65
aI65
aI155
aI155
aI155
aI155
aI90
aI90
aI90
aI90
aI75
aI75
aI75
aI75
aI75
aI75
aI75
aI45
aI45
aI45
aI45
aI105
aI105
aI105
aI105
aI25
aI25
aI25
aI25
aI25
aI25
aI25
aI410
aI410
aI410
aI410
aI410
aI210
aI210
aI210
aI210
aI105
aI105
aI105
aI105
aI105
aI105
aI120
aI120
aI120
aI120
aI45
aI45
aI5
aI5
aI5
aI5
aI5
aI5
aI5
aI5
aI110
aI110
aI110
aI110
aI85
aI85
aI85
aI85
aI140
aI140
aI140
aI140
aI140
aI125
aI125
aI125
aI125
aI125
aI85
aI85
aI85
aI85
aI110
aI110
aI110
aI60
aI60
aI60
aI25
aI25
aI25
aI25
aI30
aI30
aI30
aI30
aI30
aI155
aI155
aI155
aI155
aI105
aI105
aI105
aI105
aI60
aI60
aI60
aI60
aI60
aI130
aI130
aI130
aI130
aI130
aI130
aI100
aI100
aI100
aI100
aI85
aI85
aI15
aI15
aI15
aI15
aI15
aI15
aI215
aI215
aI35
aI35
aI35
aI60
aI60
aI60
aI60
aI60
aI60
aI60
aI180
aI180
aI180
aI180
aI180
aI140
aI140
aI140
aI140
aI105
aI105
aI15
aI15
aI15
aI15
aI15
aI155
aI155
aI155
aI155
aI155
aI155
aI165
aI165
aI165
aI165
aI40
aI40
aI40
aI15
aI15
aI20
aI20
aI35
aI35
aI35
aI35
aI35
aI35
aI265
aI265
aI265
aI265
aI265
aI215
aI215
aI215
aI215
aI110
aI110
aI110
aI25
aI25
aI25
aI50
aI50
aI50
aI50
aI50
aI50
aI50
aI465
aI465
aI465
aI465
aI80
aI80
aI80
aI80
aI80
aI80
aI80
aI80
aI80
aI80
aI445
aI445
aI445
aI445
aI445
aI445
aI445
aI125
aI125
aI15
aI15
aI15
aI15
aI95
aI95
aI95
aI90
aI90
aI15
aI15
aI15
aI15
aI55
aI55
aI20
aI20
aI20
aI20
aI20
aI20
aI20
aI20
aI20
aI20
aI710
aI710
aI710
aI710
aI50
aI50
aI20
aI20
aI20
aI20
aI75
aI75
aI75
aI75
aI60
aI60
aI60
aI60
aI60
aI275
aI275
aI275
aI35
aI35
aI35
aI35
aI35
aI110
aI110
aI110
aI110
aI105
aI105
aI105
aI105
aI70
aI70
aI70
aI70
aI70
aI70
aI185
aI185
aI185
aI185
aI185
aI185
aI285
aI285
aI285
aI285
aI105
aI105
aI105
aI105
aI45
aI45
aI45
aI45
aI110
aI110
aI110
aI70
aI70
aI70
aI65
aI65
aI65
aI65
aI65
aI65
aI130
aI130
aI60
aI60
aI60
aI60
aI60
aI60
aI60
aI260
aI260
aI260
aI260
aI80
aI80
aI80
aI55
aI55
aI55
aI30
aI30
aI30
aI30
aI30
aI110
aI110
aI110
aI110
aI110
aI320
aI320
aI320
aI35
aI35
aI35
aI90
aI90
aI90
aI90
aI25
aI25
aI25
aI5
aI5
aI5
aI65
aI65
aI65
aI65
aI65
aI75
aI75
aI75
aI55
aI55
aI55
aI55
aI140
aI140
aI140
aI140
aI10
aI10
aI10
aI10
aI30
aI30
aI15
aI15
aI65
aI65
aI65
aI65
aI95
aI95
aI95
aI95
aI95
aI100
aI100
aI100
aI100
aI105
aI105
aI105
aI105
aI105
aI105
aI105
aI105
aI105
aI105
aI235
aI235
aI235
aI235
aI235
aI235
aI235
aI350
aI350
aI350
aI5
aI5
aI5
aI5
aI5
aI50
aI50
aI50
aI50
aI125
aI125
aI125
aI125
aI65
aI65
aI65
aI65
aI185
aI185
aI185
aI185
aI80
aI80
aI80
aI40
aI40
aI40
aI40
aI75
aI75
aI75
aI75
aI75
aI75
aI75
aI75
aI270
aI270
aI15
aI15
aI15
aI15
aI15
aI15
aI15
aI15
aI340
aI340
aI340
aI340
aI115
aI115
aI115
aI115
aI115
aI105
aI105
aI105
aI105
aI105
aI140
aI140
aI30
aI30
aI30
aI15
aI15
aI15
aI15
aI15
aI15
aI15
aI255
aI255
aI255
aI255
aI35
aI35
aI35
aI15
aI15
aI15
aI15
aI35
aI35
aI35
aI35
aI25
aI25
aI60
aI60
aI60
aI60
aI65
aI65
aI65
aI65
aI65
aI120
aI120
aI120
aI45
aI45
aI45
aI45
aI125
aI125
aI125
aI125
aI125
aI295
aI295
aI295
aI50
aI50
aI50
aI50
aI50
aI110
aI110
aI110
aI30
aI30
aI30
aI30
aI90
aI90
aI90
aI90
aI5
aI5
aI5
aI5
aI75
aI75
aI75
aI75
aI15
aI15
aI15
aI55
aI55
aI55
aI55
aI55
aI155
aI155
aI155
aI155
aI140
aI140
aI140
aI140
aI140
aI140
aI210
aI210
aI210
aI210
aI210
aI210
aI65
aI65
aI65
aI65
aI155
aI155
aI20
aI20
aI20
aI20
aI65
aI65
aI65
aI65
aI60
aI60
aI60
aI60
aI45
aI45
aI45
aI45
aI80
aI80
aI80
aI80
aI80
aI185
aI185
aI185
aI185
aI55
aI55
aI55
aI55
aI55
aI45
aI45
aI45
aI45
aI45
aI305
aI305
aI305
aI305
aI75
aI75
aI75
aI75
aI150
aI150
aI150
aI150
aI150
aI150
aI150
aI230
aI230
aI230
aI230
aI90
aI90
aI90
aI90
aI90
aI90
aI140
aI140
aI140
aI110
aI110
aI110
aI110
aI110
aI125
aI125
aI125
aI80
aI80
aI80
aI80
aI75
aI75
aI75
aI75
aI75
aI75
aI75
aI40
aI40
aI40
aI40
aI105
aI105
aI0
aI0
aI0
aI0
aI0
aI95
aI95
aI95
aI105
aI105
aI105
aI105
aI15
aI15
aI15
aI15
aI15
aI15
aI15
aI15
aI15
aI340
aI340
aI340
aI340
aI45
aI45
aI45
aI45
aI45
aI45
aI215
aI215
aI215
aI215
aI215
aI95
aI95
aI95
aI95
aI95
aI95
aI220
aI220
aI220
aI220
aI90
aI90
aI90
aI50
aI50
aI50
aI20
aI20
aI20
aI20
aI10
aI10
aI10
aI35
aI35
aI65
aI65
aI65
aI20
aI20
aI20
aI45
aI45
aI45
aI45
aI45
aI295
aI295
aI295
aI295
aI295
aI170
aI170
aI170
aI170
aI50
aI50
aI50
aI20
aI20
aI20
aI20
aI30
aI30
aI30
aI30
aI130
aI130
aI130
aI130
aI110
aI110
aI110
aI110
aI110
aI110
aI110
aI175
aI175
aI175
aI175
aI100
aI100
aI100
aI100
aI105
aI105
aI105
aI5
aI5
aI5
aI50
aI50
aI50
aI50
aI50
aI160
aI160
aI160
aI160
aI40
aI40
aI40
aI40
aI85
aI85
aI30
aI30
aI30
aI30
aI30
aI110
aI110
aI110
aI45
aI45
aI45
aI45
aI45
aI45
aI250
aI250
aI250
aI55
aI55
aI55
aI55
aI55
aI55
aI300
aI300
aI300
aI65
aI65
aI65
aI65
aI65
aI115
aI115
aI115
aI115
aI95
aI95
aI35
aI35
aI35
aI35
aI35
aI80
aI80
aI80
aI80
aI195
aI195
aI195
aI40
aI40
aI40
aI60
aI60
aI60
aI60
aI60
aI215
aI215
aI215
aI215
aI55
aI55
aI55
aI55
aI20
aI20
aI20
aI20
aI20
aI20
aI20
aI20
aI20
aI20
aI35
aI35
aI50
aI50
aI50
aI50
aI50
aI155
aI155
aI155
aI25
aI25
aI15
aI15
aI15
aI15
aI15
aI15
aI240
aI240
aI240
aI240
aI35
aI35
aI35
aI35
aI35
aI80
aI80
aI80
aI55
aI55
aI55
aI55
aI55
aI55
aI55
aI55
aI55
aI55
aI85
aI85
aI85
aI85
aI85
aI335
aI335
aI335
aI335
aI335
aI335
aI110
aI110
aI35
aI35
aI35
aI35
aI35
aI35
aI90
aI90
aI90
aI90
aI55
aI55
aI55
aI55
aI55
aI55
aI120
aI120
aI120
aI120
aI110
aI110
aI110
aI110
aI60
aI60
aI60
aI30
aI30
aI30
aI55
aI55
aI55
aI55
aI55
aI180
aI180
aI180
aI5
aI5
aI5
aI5
aI5
aI5
aI5
aI80
aI80
aI80
aI80
aI15
aI15
aI15
aI15
aI15
aI15
aI15
aI220
aI220
aI220
aI220
aI220
aI50
aI50
aI50
aI50
aI115
aI115
aI115
aI115
aI115
aI115
aI130
aI130
aI130
aI130
aI130
aI130
aI250
aI250
aI250
aI250
aI250
aI110
aI110
aI30
aI30
aI30
aI30
aI30
aI325
aI325
aI325
aI20
aI20
aI20
aI20
aI20
aI20
aI80
aI80
aI25
aI25
aI25
aI50
aI50
aI50
aI50
aI130
aI130
aI130
aI130
aI130
aI85
aI85
aI85
aI85
aI85
aI85
aI185
aI185
aI185
aI5
aI5
aI5
aI5
aI5
aI5
aI150
aI150
aI150
aI150
aI150
aI150
aI150
aI180
aI180
aI180
aI180
aI180
aI75
aI75
aI75
aI30
aI30
aI30
aI30
aI30
aI80
aI80
aI80
aI45
aI45
aI45
aI45
aI45
aI45
aI135
aI135
aI135
aI135
aI120
aI120
aI120
aI120
aI105
aI105
aI5
aI5
aI5
aI5
aI5
aI5
aI5
aI265
aI265
aI265
aI70
aI70
aI70
aI70
aI135
aI135
aI135
aI135
aI135
aI135
aI135
aI135
aI210
aI210
aI210
aI50
aI50
aI50
aI50
aI50
aI150
aI150
aI150
aI150
aI15
aI15
aI15
aI15
aI15
aI85
aI85
aI35
aI35
aI35
aI35
aI35
aI55
aI55
aI55
aI55
aI55
aI55
aI75
aI75
aI75
aI75
aI80
aI80
aI80
aI75
aI75
aI75
aI75
aI75
aI75
aI75
aI75
aI155
aI155
aI155
aI155
aI60
aI60
aI60
aI60
aI20
aI20
aI20
aI20
aI20
aI115
aI115
aI115
aI115
aI50
aI50
aI50
aI30
aI30
aI30
aI30
aI30
aI30
aI30
aI60
aI60
aI60
aI25
aI25
aI25
aI25
aI25
aI95
aI95
aI0
aI0
aI0
aI0
aI100
aI100
aI100
aI100
aI80
aI80
aI80
aI80
aI35
aI35
aI35
aI15
aI15
aI15
aI15
aI90
aI90
aI90
aI5
aI5
aI5
aI5
aI80
aI80
aI80
aI80
aI80
aI220
aI220
aI220
aI20
aI20
aI20
aI20
aI125
aI125
aI125
aI20
aI20
aI40
aI40
aI40
aI40
aI40
aI110
aI110
aI110
aI110
aI50
aI50
aI50
aI50
aI50
aI50
aI50
aI210
aI210
aI210
aI95
aI95
aI95
aI95
aI15
aI15
aI30
aI30
aI30
aI30
aI150
aI150
aI150
aI150
aI150
aI150
aI105
aI105
aI105
aI20
aI20
aI20
aI20
aI20
aI120
aI120
aI120
aI120
aI120
aI90
aI90
aI90
aI90
aI135
aI135
aI135
aI135
aI135
aI135
aI135
aI135
aI175
aI175
aI175
aI175
aI130
aI130
aI130
aI130
aI130
aI105
aI105
aI105
aI105
aI275
aI275
aI275
aI275
aI120
aI120
aI120
aI120
aI155
aI155
aI155
aI155
aI155
aI155
aI170
aI170
aI170
aI170
aI15
aI15
aI15
aI15
aI155
aI155
aI155
aI155
aI60
aI60
aI60
aI60
aI60
aI155
aI155
aI155
aI155
aI155
aI180
aI180
aI180
aI180
aI65
aI65
aI65
aI65
aI265
aI265
aI265
aI265
aI265
aI265
aI90
aI90
aI90
aI90
aI60
aI60
aI60
aI60
aI60
aI135
aI135
aI135
aI135
aI30
aI30
aI30
aI55
aI55
aI55
aI55
aI30
aI30
aI30
aI30
aI30
aI180
aI180
aI180
aI180
aI180
aI85
aI85
aI85
aI85
aI15
aI15
aI15
aI15
aI95
aI95
aI95
aI95
aI95
aI145
aI145
aI145
aI75
aI75
aI75
aI75
aI75
aI75
aI75
aI75
aI75
aI90
aI90
aI90
aI90
aI90
aI90
aI110
aI110
aI110
aI110
aI110
aI140
aI140
aI140
aI140
aI140
aI85
aI85
aI85
aI85
aI180
aI180
aI180
aI75
aI75
aI75
aI75
aI75
aI75
aI95
aI95
aI95
aI95
aI135
aI135
aI50
aI50
aI50
aI50
aI20
aI20
aI20
aI20
aI20
aI20
aI130
aI130
aI130
aI130
aI75
aI75
aI55
aI55
aI55
aI55
aI55
aI30
aI30
aI25
aI25
aI25
aI25
aI45
aI45
aI5
aI5
aI5
aI5
aI65
aI65
aI65
aI25
aI25
aI25
aI25
aI25
aI25
aI25
aI270
aI270
aI270
aI270
aI270
aI270
aI80
aI80
aI80
aI80
aI80
aI80
aI140
aI140
aI140
aI140
aI140
aI140
aI170
aI170
aI170
aI85
aI85
aI85
aI85
aI65
aI65
aI65
aI65
aI65
aI65
aI35
aI35
aI35
aI65
aI65
aI65
aI65
aI20
aI20
aI20
aI20
aI110
aI110
aI110
aI110
aI20
aI20
aI50
aI50
aI50
aI20
aI20
aI20
aI20
aI105
aI105
aI105
aI105
aI90
aI90
aI90
aI90
aI70
aI70
aI70
aI35
aI35
aI35
aI35
aI135
aI135
aI135
aI135
aI135
aI135
aI165
aI165
aI165
aI165
aI165
aI165
aI315
aI315
aI315
aI315
aI110
aI110
aI110
aI30
aI30
aI30
aI30
aI30
aI30
aI370
aI370
aI370
aI370
aI370
aI60
aI60
aI55
aI55
aI55
aI55
aI55
aI60
aI60
aI60
aI40
aI40
aI40
aI40
aI40
aI40
aI40
aI40
aI225
aI225
aI225
aI225
aI225
aI135
aI135
aI135
aI135
aI20
aI20
aI20
aI20
aI20
aI100
aI100
aI100
aI100
aI100
aI280
aI280
aI280
aI280
aI170
aI170
aI170
aI30
aI30
aI30
aI30
aI30
aI30
aI30
aI285
aI285
aI285
aI35
aI35
aI35
aI35
aI35
aI155
aI155
aI155
aI90
aI90
aI90
aI90
aI90
aI110
aI110
aI110
aI110
aI110
aI55
aI55
aI40
aI40
aI40
aI40
aI30
aI30
aI30
aI30
aI70
aI70
aI70
aI70
aI70
aI70
aI95
aI95
aI95
aI95
aI95
aI20
aI20
aI30
aI30
aI30
aI30
aI55
aI55
aI55
aI55
aI55
aI100
aI100
aI100
aI100
aI25
aI25
aI25
aI25
aI25
aI135
aI135
aI135
aI135
aI60
aI60
aI60
aI60
aI60
aI60
aI60
aI75
aI75
aI75
aI75
aI75
aI120
aI120
aI120
aI120
aI120
aI65
aI65
aI65
aI65
aI40
aI40
aI40
aI40
aI40
aI40
aI40
aI40
aI40
aI170
aI170
aI170
aI170
aI15
aI15
aI15
aI15
aI65
aI65
aI65
aI15
aI15
aI15
aI15
aI45
aI45
aI45
aI45
aI45
aI45
aI30
aI30
aI30
aI30
aI195
aI195
aI195
aI195
aI195
aI195
aI195
aI400
aI400
aI400
aI400
aI400
aI120
aI120
aI15
aI15
aI15
aI15
aI15
aI15
aI15
aI275
aI275
aI35
aI35
aI35
aI35
aI60
aI60
aI60
aI60
aI155
aI155
aI155
aI155
aI155
aI45
aI45
aI45
aI45
aI135
aI135
aI135
aI135
aI135
aI160
aI160
aI160
aI160
aI160
aI160
aI65
aI65
aI65
aI65
aI65
aI65
aI85
aI85
aI85
aI135
aI135
aI135
aI65
aI65
aI65
aI90
aI90
aI90
aI90
aI120
aI120
aI120
aI25
aI25
aI25
aI25
aI0
aI0
aI0
aI0
aI0
aI0
aI0
aI255
aI255
aI255
aI80
aI80
aI80
aI80
aI80
aI80
aI80
aI80
aI85
aI85
aI85
aI85
aI70
aI70
aI70
aI70
aI140
aI140
aI140
aI140
aI140
aI35
aI35
aI35
aI35
aI85
aI85
aI85
aI85
aI85
aI85
aI85
aI55
aI55
aI55
aI5
aI5
aI5
aI5
aI145
aI145
aI145
aI145
aI105
aI105
aI105
aI0
aI0
aI0
aI0
aI0
aI0
aI110
aI110
aI110
aI110
aI30
aI30
aI50
aI50
aI50
aI30
aI30
aI30
aI20
aI20
aI20
aI15
aI15
aI15
aI55
aI55
aI55
aI55
aI55
aI55
aI55
aI5
aI5
aI5
aI50
aI50
aI50
aI50
aI50
aI50
aI120
aI120
aI120
aI120
aI120
aI120
aI120
aI405
aI405
aI405
aI405
aI75
aI75
aI75
aI75
aI75
aI75
aI75
aI75
aI180
aI180
aI180
aI180
aI180
aI180
aI310
aI310
aI310
aI310
aI95
aI95
aI95
aI95
aI95
aI95
aI145
aI145
aI145
aI145
aI145
aI145
aI140
aI140
aI140
aI140
aI120
aI120
aI120
aI120
aI120
aI120
aI120
aI350
aI350
aI350
aI350
aI350
aI25
aI25
aI25
aI25
aI60
aI60
aI60
aI60
aI60
aI60
aI60
aI280
aI280
aI280
aI280
aI30
aI30
aI30
aI45
aI45
aI45
aI45
aI5
aI5
aI15
aI15
aI15
aI15
aI30
aI30
aI30
aI30
aI90
aI90
aI90
aI90
aI90
aI90
aI90
aI90
aI315
aI315
aI315
aI315
aI315
aI170
aI170
aI170
aI170
aI55
aI55
aI55
aI55
aI55
aI55
aI55
aI55
aI55
aI55
aI55
aI55
aI55
aI5
aI5
aI5
aI5
aI5
aI5
aI175
aI175
aI175
aI55
aI55
aI55
aI55
aI45
aI45
aI45
aI45
aI60
aI60
aI60
aI60
aI60
aI60
aI60
aI60
aI60
aI270
aI270
aI270
aI270
aI270
aI195
aI195
aI195
aI195
aI65
aI65
aI65
aI65
aI65
aI110
aI110
aI110
aI110
aI15
aI15
aI15
aI15
aI15
aI65
aI65
aI65
aI65
aI65
aI355
aI355
aI355
aI15
aI15
aI15
aI15
aI15
aI10
aI10
aI10
aI10
aI75
aI75
aI75
aI75
aI60
aI60
aI60
aI60
aI65
aI65
aI65
aI65
aI65
aI65
aI65
aI65
aI65
aI115
aI115
aI115
aI90
aI90
aI90
aI90
aI90
aI90
aI120
aI120
aI120
aI120
aI120
aI120
aI120
aI155
aI155
aI155
aI35
aI35
aI35
aI35
aI35
aI35
aI170
aI170
aI170
aI170
aI20
aI20
aI20
aI20
aI55
aI55
aI55
aI55
aI55
aI120
aI120
aI120
aI120
aI5
aI5
aI5
aI5
aI5
aI5
aI60
aI60
aI60
aI10
aI10
aI10
aI30
aI30
aI30
aI30
aI30
aI160
aI160
aI160
aI35
aI35
aI35
aI105
aI105
aI105
aI105
aI15
aI15
aI15
aI15
aI70
aI70
aI70
aI70
aI25
aI25
aI25
aI25
aI45
aI45
aI45
aI45
aI45
aI145
aI145
aI145
aI145
aI75
aI75
aI75
aI60
aI60
aI60
aI60
aI85
aI85
aI85
aI5
aI5
aI5
aI5
aI5
aI5
aI5
aI5
aI240
aI240
aI240
aI240
aI125
aI125
aI10
aI10
aI10
aI10
aI10
aI10
aI10
aI110
aI110
aI110
aI75
aI75
aI75
aI75
aI30
aI30
aI30
aI30
aI30
aI95
aI95
aI20
aI20
aI20
aI20
aI20
aI20
aI270
aI270
aI270
aI270
aI270
aI45
aI45
aI45
aI45
aI45
aI45
aI45
aI95
aI95
aI95
aI10
aI10
aI10
aI10
aI50
aI50
aI15
aI15
aI15
aI15
aI15
aI15
aI240
aI240
aI240
aI240
aI240
aI55
aI55
aI55
aI15
aI15
aI15
aI15
aI50
aI50
aI50
aI50
aI15
aI15
aI15
aI15
aI15
aI150
aI150
aI150
aI40
aI40
aI40
aI40
aI40
aI40
aI40
aI140
aI140
aI140
aI140
aI35
aI35
aI35
aI35
aI35
aI35
aI35
aI25
aI25
aI25
aI25
aI25
aI25
aI80
aI80
aI80
aI0
aI0
aI0
aI50
aI50
aI50
aI45
aI45
aI45
aI45
aI95
aI95
aI95
aI95
aI95
aI145
aI145
aI145
aI55
aI55
aI55
aI55
aI55
aI120
aI120
aI120
aI120
aI120
aI225
aI225
aI225
aI15
aI15
aI15
aI15
aI15
aI15
aI190
aI190
aI190
aI30
aI30
aI30
aI30
aI120
aI120
aI120
aI20
aI20
aI20
aI20
aI75
aI75
aI75
aI75
aI75
aI135
aI135
aI5
aI5
aI5
aI5
aI30
aI30
aI30
aI30
aI30
aI30
aI30
aI145
aI145
aI145
aI145
aI70
aI70
aI70
aI70
aI30
aI30
aI30
aI30
aI110
aI110
aI110
aI110
aI110
aI110
aI30
aI30
aI45
aI45
aI45
aI5
aI5
aI5
aI5
aI5
aI100
aI100
aI100
aI100
aI100
aI100
aI100
aI125
aI125
aI125
aI125
aI125
aI125
aI185
aI185
aI185
aI20
aI20
aI20
aI50
aI50
aI50
aI15
aI15
aI15
aI15
aI105
aI105
aI15
aI15
aI15
aI20
aI20
aI20
aI20
aI10
aI10
aI10
aI0
aI0
aI30
aI30
aI30
aI30
aI30
aI30
aI155
aI155
aI155
aI155
aI155
aI85
aI85
aI85
aI50
aI50
aI50
aI50
aI130
aI130
aI130
aI130
aI110
aI110
aI110
aI45
aI45
aI45
aI45
aI45
aI145
aI145
aI145
aI145
aI20
aI20
aI20
aI55
aI55
aI30
aI30
aI30
aI70
aI70
aI70
aI70
aI95
aI95
aI95
aI95
aI95
aI95
aI95
aI195
aI195
aI195
aI195
aI195
aI195
aI180
aI180
aI180
aI180
aI50
aI50
aI50
aI65
aI65
aI65
aI65
aI105
aI105
aI105
aI105
aI105
aI105
aI105
aI170
aI170
aI170
aI170
aI45
aI45
aI45
aI20
aI20
aI20
aI20
aI20
aI10
aI10
aI10
aI10
aI50
aI50
aI50
aI95
aI95
aI95
aI20
aI20
aI20
aI20
aI20
aI170
aI170
aI170
aI170
aI170
aI170
aI120
aI120
aI120
aI120
aI120
aI120
aI200
aI200
aI200
aI200
aI200
aI200
aI200
aI200
aI305
aI305
aI305
aI305
aI305
aI305
aI95
aI95
aI60
aI60
aI60
aI80
aI80
aI80
aI80
aI80
aI80
aI270
aI270
aI270
aI270
aI60
aI60
aI20
aI20
aI20
aI35
aI35
aI35
aI105
aI105
aI105
aI105
aI105
aI60
aI60
aI60
aI60
aI60
aI60
aI60
aI315
aI315
aI315
aI315
aI315
aI315
aI95
aI95
aI95
aI95
aI95
aI65
aI65
aI65
aI65
aI65
aI90
aI90
aI90
aI90
aI90
aI90
aI180
aI180
aI180
aI30
aI30
aI30
aI20
aI20
aI20
aI20
aI20
aI140
aI140
aI140
aI105
aI105
aI105
aI15
aI15
aI15
aI15
aI15
aI165
aI165
aI165
aI165
aI15
aI15
aI50
aI50
aI50
aI50
aI50
aI50
aI50
aI240
aI240
aI240
aI240
aI240
aI215
aI215
aI215
aI215
aI215
aI215
aI215
aI215
aI215
aI215
aI560
aI560
aI560
aI560
aI30
aI30
aI30
aI30
aI30
aI30
aI400
aI400
aI400
aI400
aI15
aI15
aI15
aI15
aI15
aI15
aI15
aI15
aI15
aI335
aI335
aI335
aI335
aI335
aI80
aI80
aI80
aI80
aI30
aI30
aI30
aI30
aI105
aI105
aI105
aI105
aI60
aI60
aI60
aI80
aI80
aI80
aI80
aI70
aI70
aI70
aI70
aI70
aI70
aI120
aI120
aI120
aI120
aI65
aI65
aI65
aI65
aI90
aI90
aI90
aI90
aI95
aI95
aI95
aI95
aI80
aI80
aI80
aI80
aI65
aI65
aI65
aI65
aI65
aI160
aI160
aI160
aI160
aI160
aI160
aI150
aI150
aI30
aI30
aI30
aI50
aI50
aI50
aI35
aI35
aI35
aI35
aI200
aI200
aI200
aI5
aI5
aI5
aI20
aI20
aI20
aI50
aI50
aI10
aI10
aI10
aI10
aI75
aI75
aI75
aI75
aI75
aI75
aI75
aI75
aI120
aI120
aI120
aI120
aI45
aI45
aI55
aI55
aI55
aI45
aI45
aI45
aI25
aI25
aI25
aI25
aI25
aI30
aI30
aI30
aI30
aI30
aI100
aI100
aI100
aI100
aI100
aI100
aI100
aI100
aI100
aI105
aI105
aI105
aI105
aI40
aI40
aI40
aI40
aI40
aI105
aI105
aI105
aI20
aI20
aI20
aI20
aI20
aI130
aI130
aI130
aI50
aI50
aI50
aI50
aI70
aI70
aI70
aI5
aI5
aI5
aI5
aI5
aI65
aI65
aI65
aI65
aI55
aI55
aI55
aI55
aI50
aI50
aI50
aI65
aI65
aI65
aI65
aI25
aI25
aI25
aI120
aI120
aI120
aI120
aI120
aI120
aI120
aI120
aI405
aI405
aI405
aI65
aI65
aI65
aI65
aI170
aI170
aI170
aI170
aI35
aI35
aI35
aI35
aI35
aI90
aI90
aI95
aI95
aI95
aI95
aI95
aI95
aI95
aI95
aI95
aI95
aI105
aI105
aI105
aI105
aI310
aI310
aI310
aI310
aI310
aI80
aI80
aI80
aI110
aI110
aI110
aI110
aI40
aI40
aI40
aI40
aI55
aI55
aI55
aI55
aI55
aI55
aI370
aI370
aI370
aI110
aI110
aI110
aI110
aI100
aI100
aI100
aI40
aI40
aI40
aI40
aI80
aI80
aI80
aI80
aI40
aI40
aI40
aI40
aI50
aI50
aI25
aI25
aI25
aI25
aI25
aI145
aI145
aI20
aI20
aI20
aI20
aI25
aI25
aI25
aI20
aI20
aI20
aI20
aI30
aI30
aI30
aI45
aI45
aI45
aI80
aI80
aI80
aI80
aI65
aI65
aI65
aI65
aI20
aI20
aI20
aI20
aI20
aI20
aI170
aI170
aI170
aI170
aI65
aI65
aI65
aI65
aI65
aI65
aI65
aI70
aI70
aI70
aI70
aI125
aI125
aI125
aI125
aI125
aI125
aI125
aI125
aI125
aI160
aI160
aI160
aI30
aI30
aI30
aI40
aI40
aI40
aI40
aI40
aI40
aI220
aI220
aI220
aI85
aI85
aI85
aI85
aI20
aI20
aI20
aI20
aI45
aI45
aI45
aI45
aI45
aI45
aI115
aI115
aI115
aI115
aI125
aI125
aI125
aI130
aI130
aI130
aI130
aI35
aI35
aI35
aI35
aI35
aI35
aI190
aI190
aI15
aI15
aI15
aI15
aI25
aI25
aI25
aI50
aI50
aI50
aI35
aI35
aI35
aI35
aI105
aI105
aI105
aI105
aI70
aI70
aI70
aI70
aI65
aI65
aI65
aI50
aI50
aI50
aI50
aI80
aI80
aI80
aI0
aI0
aI0
aI0
aI0
aI0
aI0
aI165
aI165
aI165
aI35
aI35
aI5
aI5
aI5
aI65
aI65
aI65
aI30
aI30
aI30
aI30
aI30
aI165
aI165
aI165
aI45
aI45
aI45
aI45
aI45
aI45
aI45
aI165
aI165
aI165
aI165
aI20
aI20
aI20
aI20
aI25
aI25
aI25
aI25
aI25
aI140
aI140
aI20
aI20
aI20
aI20
aI20
aI20
aI115
aI115
aI115
aI115
aI35
aI35
aI35
aI40
aI40
aI40
aI35
aI35
aI35
aI35
aI35
aI35
aI35
aI435
aI435
aI0
aI0
aI0
aI0
aI120
aI120
aI120
aI120
aI95
aI95
aI20
aI20
aI20
aI15
aI15
aI15
aI15
aI30
aI30
aI30
aI30
aI85
aI85
aI85
aI85
aI85
aI85
aI85
aI465
aI465
aI465
aI465
aI60
aI60
aI30
aI30
aI5
aI5
aI5
aI5
aI5
aI5
aI5
aI20
aI20
aI20
aI20
aI20
aI20
aI65
aI65
aI65
aI65
aI65
aI65
aI230
aI230
aI15
aI15
aI15
aI15
aI25
aI25
aI25
aI25
aI25
aI25
aI25
aI25
aI5
aI5
aI5
aI5
aI0
aI0
aI0
aI5
aI5
aI5
aI5
aI0
aI0
aI0
aI0
aI0
aI0
aI0
aI0
aI30
aI30
aI30
aI30
aI30
aI30
aI30
aI30
aI100
aI100
aI100
aI105
aI105
aI105
aI105
aI105
aI105
aI105
aI105
aI105
aI105
aI105
aI75
aI75
aI75
aI75
aI75
aI85
aI85
aI85
aI85
aI105
aI105
aI105
aI15
aI15
aI15
aI15
aI15
aI130
aI130
aI130
aI105
aI105
aI105
aI105
aI105
aI105
aI80
aI80
aI80
aI80
aI80
aI80
aI80
aI80
aI80
aI80
aI125
aI125
aI0
aI0
aI0
aI0
aI0
aI170
aI170
aI170
aI75
aI75
aI75
aI75
aI15
aI15
aI15
aI5
aI5
aI5
aI5
aI120
aI120
aI120
aI120
aI120
aI120
aI55
aI55
aI55
aI35
aI35
aI105
aI105
aI105
aI105
aI105
aI120
aI120
aI120
aI120
aI120
aI110
aI110
aI110
aI110
aI50
aI50
aI15
aI15
aI5
aI5
aI5
aI5
aI15
aI15
aI15
aI15
aI15
aI35
aI35
aI35
aI35
aI5
aI5
aI5
aI5
aI5
aI5
aI5
aI15
aI15
aI15
aI15
aI15
aI15
aI15
aI150
aI150
aI0
aI0
aI0
aI0
aI5
aI5
aI5
aI40
aI40
aI40
aI40
aI40
aI40
aI15
aI15
aI15
aI15
aI15
aI15
aI210
aI210
aI210
aI210
aI210
aI105
aI105
aI105
aI105
aI85
aI85
aI85
aI85
aI0
aI0
aI5
aI5
aI5
aI5
aI5
aI155
aI155
aI155
aI155
aI155
aI155
aI155
aI330
aI330
aI330
aI330
aI0
aI0
aI0
aI0
aI25
aI25
aI25
aI25
aI25
aI25
aI25
aI25
aI210
aI210
aI210
aI210
aI210
aI110
aI110
aI110
aI110
aI110
aI140
aI140
aI140
aI140
aI5
aI5
aI5
aI5
aI5
aI5
aI40
aI40
aI40
aI40
aI40
aI40
aI240
aI240
aI240
aI15
aI15
aI15
aI30
aI30
aI30
aI30
aI0
aI0
aI0
aI0
aI15
aI15
aI15
aI15
aI180
aI180
aI180
aI180
aI180
aI180
aI145
aI145
aI145
aI145
aI145
aI20
aI20
aI20
aI20
aI20
aI20
aI20
aI20
aI20
aI20
aI20
aI5
aI5
aI5
aI5
aI5
aI20
aI20
aI20
aI20
aI20
aI35
aI35
aI35
aI35
aI35
aI35
aI35
aI35
aI35
aI390
aI390
aI390
aI390
aI390
aI390
aI390
aI390
aI390
aI545
aI545
aI545
aI545
aI15
aI15
aI0
aI0
aI0
aI0
aI15
aI15
aI15
aI15
aI15
aI40
aI40
aI40
aI40
aI30
aI30
aI30
aI30
aI80
aI80
aI80
aI80
aI80
aI80
aI105
aI105
aI105
aI105
aI0
aI0
aI0
aI0
aI15
aI15
aI15
aI75
aI75
aI75
aI75
aI75
aI75
aI15
aI15
aI15
aI15
aI5
aI5
aI5
aI5
aI5
aI190
aI190
aI190
aI190
aI210
aI210
aI210
aI210
aI180
aI180
aI180
aI180
aI15
aI15
aI15
aI15
aI10
aI10
aI10
aI10
aI10
aI10
aI20
aI20
aI20
aI40
aI40
aI40
aI40
aI40
aI40
aI40
aI155
aI155
aI155
aI155
aI110
aI110
aI110
aI110
aI110
aI110
aI50
aI50
aI50
aI50
aI50
aI50
aI50
aI50
aI50
aI50
aI50
aI50
aI280
aI280
aI280
aI280
aI280
aI280
aI15
aI15
aI5
aI5
aI5
aI5
aI0
aI0
aI0
aI0
aI10
aI10
aI10
aI10
aI10
aI95
aI95
aI95
aI95
aI95
aI95
aI95
aI455
aI455
aI455
aI455
aI455
aI455
aI260
aI260
aI50
aI50
aI50
aI50
aI50
aI50
aI50
aI50
aI550
aI550
aI550
aI550
aI550
aI550
aI550
aI25
aI25
aI25
aI25
aI25
aI25
aI25
aI25
aI25
aI25
aI25
aI85
aI85
aI85
aI85
aI85
aI85
aI20
aI20
aI20
aI20
aI110
aI110
aI110
aI110
aI110
aI110
aI25
aI25
aI25
aI25
aI130
aI130
aI130
aI130
aI130
aI165
aI165
aI165
aI165
aI165
aI155
aI155
aI155
aI155
aI20
aI20
aI20
aI5
aI5
aI55
aI55
aI55
aI55
aI55
aI210
aI210
aI210
aI210
aI85
aI85
aI85
aI85
aI85
aI85
aI375
aI375
aI375
aI165
aI165
aI165
aI165
aI165
aI165
aI165
aI165
aI575
aI575
aI575
aI575
aI20
aI20
aI20
aI0
aI0
aI0
aI0
aI20
aI20
aI20
aI20
aI75
aI75
aI15
aI15
aI15
aI15
aI45
aI45
aI45
aI45
aI45
aI45
aI45
aI45
aI45
aI255
aI255
aI255
aI80
aI80
aI80
aI80
aI10
aI10
aI10
aI10
aI50
aI50
aI50
aI50
aI5
aI5
aI5
aI5
aI135
aI135
aI135
aI135
aI135
aI135
aI135
aI135
aI105
aI105
aI105
aI20
aI20
aI20
aI5
aI5
aI0
aI0
aI0
aI0
aI0
aI80
aI80
aI80
aI80
aI80
aI80
aI60
aI60
aI60
aI60
aI5
aI5
aI5
aI5
aI5
aI100
aI100
aI100
aI100
aI100
aI100
aI100
aI165
aI165
aI10
aI10
aI10
aI10
aI10
aI170
aI170
aI170
aI170
aI170
aI170
aI90
aI90
aI90
aI90
aI90
aI90
aI125
aI125
aI125
aI125
aI125
aI125
aI125
aI125
aI190
aI190
aI190
aI190
aI190
aI190
aI190
aI190
aI190
aI190
aI530
aI530
aI530
aI75
aI75
aI75
aI75
aI115
aI115
aI115
aI115
aI140
aI140
aI140
aI140
aI120
aI120
aI120
aI120
aI30
aI30
aI30
aI30
aI30
aI30
aI30
aI30
aI260
aI260
aI45
aI45
aI45
aI45
aI45
aI45
aI45
aI230
aI230
aI230
aI230
aI50
aI50
aI50
aI50
aI75
aI75
aI75
aI75
aI75
aI75
aI105
aI105
aI105
aI105
aI105
aI105
aI515
aI515
aI515
aI515
aI140
aI140
aI140
aI140
aI75
aI75
aI75
aI135
aI135
aI135
aI135
aI135
aI135
aI135
aI135
aI185
aI185
aI185
aI185
aI90
aI90
aI90
aI90
aI105
aI105
aI105
aI105
aI105
aI105
aI110
aI110
aI110
aI10
aI10
aI10
aI10
aI10
aI10
aI90
aI90
aI0
aI0
aI0
aI0
aI120
aI120
aI120
aI120
aI120
aI120
aI120
aI120
aI120
aI280
aI280
aI280
aI280
aI280
aI180
aI180
aI180
aI180
aI180
aI180
aI100
aI100
aI100
aI100
aI100
aI100
aI100
aI100
aI100
aI445
aI445
aI445
aI445
aI445
aI210
aI210
aI210
aI210
aI210
aI210
aI210
aI210
aI80
aI80
aI80
aI80
aI80
aI210
aI210
aI210
aI210
aI210
aI210
aI210
aI210
aI210
aI150
aI150
aI150
aI75
aI75
aI15
aI15
aI45
aI45
aI45
aI45
aI45
aI45
aI45
aI45
aI45
aI45
aI515
aI515
aI515
aI515
aI515
aI515
aI515
aI515
aI515
aI285
aI285
aI285
aI285
aI285
aI285
aI210
aI210
aI210
aI210
aI210
aI210
aI210
aI210
aI495
aI495
aI5
aI5
aI5
aI5
aI5
aI5
aI5
aI5
aI5
aI210
aI210
aI210
aI180
aI180
aI180
aI180
aI180
aI180
aI180
aI185
aI185
aI185
aI185
aI185
aI185
aI185
aI240
aI240
aI240
aI240
aI15
aI15
aI15
aI15
aI15
aI15
aI15
aI15
aI15
aI15
aI15
aI215
aI215
aI215
aI75
aI75
aI75
aI75
aI75
aI75
aI120
aI120
aI120
aI50
aI50
aI50
aI50
aI50
aI180
aI180
aI180
aI105
aI105
aI105
aI105
aI140
aI140
aI140
aI140
aI140
aI140
aI335
aI335
aI335
aI335
aI335
aI335
aI335
aI335
aI335
aI210
aI210
aI210
aI210
aI210
aI210
aI225
aI225
aI225
aI225
aI225
aI455
aI455
aI455
aI455
aI455
aI270
aI270
aI270
aI270
aI270
aI115
aI115
aI115
aI115
aI115
aI115
aI220
aI220
aI220
aI220
aI220
aI110
aI110
aI5
aI5
aI50
aI50
aI5
aI5
aI5
aI15
aI15
aI15
aI15
aI15
aI15
aI70
aI70
aI70
aI70
aI70
aI135
aI135
aI135
aI135
aI30
aI30
aI30
aI30
aI30
aI280
aI280
aI280
aI280
aI120
aI120
aI120
aI120
aI120
aI120
aI120
aI120
aI120
aI255
aI255
aI255
aI255
aI255
aI115
aI115
aI115
aI115
aI115
aI115
aI115
aI115
aI225
aI225
aI225
aI225
aI225
aI225
aI155
aI155
aI155
aI155
aI155
aI0
aI0
aI0
aI30
aI30
aI30
aI30
aI30
aI105
aI105
aI105
aI5
aI5
aI5
aI5
aI5
aI5
aI185
aI185
aI185
aI185
aI90
aI90
aI90
aI90
aI75
aI75
aI75
aI75
aI75
aI75
aI75
aI75
aI715
aI715
aI715
aI715
aI715
aI715
aI715
aI230
aI230
aI230
aI230
aI150
aI150
aI150
aI150
aI150
aI155
aI155
aI155
aI155
aI120
aI120
aI120
aI120
aI120
aI120
aI120
aI120
aI320
aI320
aI320
aI105
aI105
aI105
aI105
aI180
aI180
aI180
aI115
aI115
aI115
aI115
aI135
aI135
aI135
aI135
aI135
aI135
aI215
aI215
aI215
aI215
aI215
aI215
aI215
aI215
aI215
aI215
aI260
aI260
aI260
aI260
aI50
aI50
aI50
aI50
aI120
aI120
aI120
aI120
aI120
aI120
aI265
aI265
aI265
aI265
aI265
aI265
aI285
aI285
aI285
aI285
aI285
aI285
aI285
aI285
aI280
aI280
aI280
aI280
aI80
aI80
aI80
aI80
aI80
aI80
aI80
aI80
aI235
aI235
aI235
aI235
aI235
aI235
aI235
aI235
aI305
aI305
aI305
aI305
aI305
aI305
aI445
aI445
aI445
aI80
aI80
aI80
aI80
aI80
aI135
aI135
aI135
aI135
aI105
aI105
aI105
aI105
aI105
aI210
aI210
aI210
aI210
aI155
aI155
aI155
aI105
aI105
aI105
aI105
aI105
aI105
aI105
aI105
aI105
aI110
aI110
aI110
aI110
aI110
aI75
aI75
aI75
aI75
aI40
aI40
aI40
aI40
aI40
aI155
aI155
aI155
aI155
aI50
aI50
aI50
aI50
aI50
aI50
aI50
aI50
aI335
aI335
aI0
aI0
aI0
aI0
aI85
aI85
aI85
aI85
aI100
aI100
aI100
aI100
aI65
aI65
aI105
aI105
aI105
aI105
aI30
aI30
aI30
aI110
aI110
aI110
aI15
aI15
aI15
aI15
aI75
aI75
aI75
aI75
aI75
aI75
aI75
aI75
aI85
aI85
aI85
aI85
aI85
aI135
aI135
aI95
aI95
aI95
aI95
aI95
aI105
aI105
aI105
aI15
aI15
aI15
aI15
aI15
aI15
aI280
aI280
aI280
aI280
aI50
aI50
aI50
aI50
aI50
aI225
aI225
aI225
aI225
aI225
aI210
aI210
aI210
aI210
aI210
aI210
aI275
aI275
aI275
aI275
aI275
aI210
aI210
aI210
aI210
aI210
aI155
aI155
aI75
aI75
aI75
aI75
aI75
aI180
aI180
aI180
aI180
aI180
aI180
aI180
aI180
aI355
aI355
aI355
aI355
aI355
aI210
aI210
aI210
aI210
aI210
aI210
aI210
aI315
aI315
aI315
aI315
aI315
aI315
aI270
aI270
aI270
aI270
aI270
aI180
aI180
aI180
aI180
aI180
aI210
aI210
aI210
aI210
aI210
aI210
aI210
aI50
aI50
aI50
aI50
aI50
aI210
aI210
aI210
aI210
aI210
aI225
aI225
aI225
aI225
aI225
aI225
aI225
aI225
aI225
aI390
aI390
aI390
aI390
aI390
aI390
aI460
aI460
aI460
aI460
aI460
aI155
aI155
aI155
aI155
aI75
aI75
aI75
aI75
aI105
aI105
aI105
aI105
aI105
aI105
aI105
aI105
aI330
aI330
aI330
aI330
aI330
aI330
aI470
aI470
aI470
aI470
aI470
aI180
aI180
aI180
aI180
aI180
aI180
aI180
aI180
aI180
aI180
aI210
aI210
aI210
aI210
aI180
aI180
aI180
aI180
aI180
aI180
aI260
aI260
aI260
aI260
aI260
aI260
aI240
aI240
aI240
aI240
aI210
aI210
aI210
aI210
aI210
aI210
aI440
aI440
aI440
aI440
aI440
aI210
aI210
aI210
aI210
aI210
aI210
aI485
aI485
aI485
aI485
aI485
aI485
aI485
aI485
aI745
aI745
aI745
aI745
aI105
aI105
aI105
aI105
aI105
aI105
aI260
aI260
aI260
aI260
aI105
aI105
aI105
aI105
aI105
aI105
aI105
aI105
aI105
aI210
aI210
aI210
aI210
aI210
aI210
aI210
aI210
aI210
aI210
aI235
aI235
aI235
aI235
aI110
aI110
aI110
aI110
aI110
aI210
aI210
aI210
aI210
aI105
aI105
aI105
aI105
aI105
aI210
aI210
aI210
aI210
aI210
aI410
aI410
aI410
aI410
aI410
aI110
aI110
aI110
aI75
aI75
aI75
aI75
aI75
aI210
aI210
aI210
aI105
aI105
aI105
aI105
aI105
aI105
aI265
aI265
aI265
aI265
aI265
aI265
aI265
aI265
aI265
aI265
aI265
aI550
aI550
aI550
aI550
aI105
aI105
aI105
aI105
aI105
aI105
aI105
aI285
aI285
aI285
aI285
aI105
aI105
aI105
aI80
aI80
aI80
aI80
aI120
aI120
aI120
aI120
aI120
aI105
aI105
aI105
aI105
aI210
aI210
aI210
aI210
aI210
aI140
aI140
aI140
aI140
aI140
aI210
aI210
aI210
aI210
aI210
aI285
aI285
aI285
aI285
aI285
aI285
aI240
aI240
aI240
aI240
aI105
aI105
aI105
aI120
aI120
aI120
aI120
aI160
aI160
aI160
aI160
aI160
aI160
aI260
aI260
aI260
aI260
aI260
aI260
aI260
aI260
aI260
aI350
aI350
aI350
aI135
aI135
aI135
aI135
aI140
aI140
aI140
aI75
aI75
aI75
aI105
aI105
aI105
aI105
aI105
aI155
aI155
aI155
aI155
aI155
aI155
aI155
aI155
aI155
aI155
aI210
aI210
aI210
aI210
aI210
aI180
aI180
aI180
aI180
aI135
aI135
aI135
aI135
aI135
aI135
aI135
aI135
aI135
aI565
aI565
aI565
aI565
aI565
aI240
aI240
aI240
aI240
aI240
aI240
aI240
aI240
aI775
aI775
aI775
aI75
aI75
aI75
aI75
aI75
aI75
aI275
aI275
aI275
aI105
aI105
aI105
aI105
aI105
aI410
aI410
aI410
aI410
aI410
aI155
aI155
aI155
aI155
aI155
aI260
aI260
aI260
aI260
aI260
aI180
aI180
aI180
aI105
aI105
aI105
aI105
aI105
aI135
aI135
aI135
aI135
aI135
aI180
aI180
aI180
aI105
aI105
aI105
aI105
aI105
aI410
aI410
aI410
aI410
aI410
aI180
aI180
aI180
aI180
aI110
aI110
aI110
aI110
aI105
aI105
aI105
aI105
aI105
aI105
aI105
aI105
aI105
aI105
aI240
aI240
aI240
aI240
aI240
aI210
aI210
aI210
aI210
aI105
aI105
aI105
aI105
aI105
aI105
aI105
aI105
aI395
aI395
aI395
aI395
aI395
aI160
aI160
aI160
aI160
aI185
aI185
aI185
aI185
aI185
aI185
aI270
aI270
aI270
aI270
aI270
aI360
aI360
aI360
aI360
aI360
aI410
aI410
aI410
aI410
aI410
aI410
aI410
aI410
aI410
aI155
aI155
aI155
aI155
aI155
aI180
aI180
aI180
aI180
aI180
aI410
aI410
aI410
aI410
aI410
aI410
aI335
aI335
aI335
aI335
aI75
aI75
aI75
aI75
aI110
aI110
aI110
aI110
aI110
aI180
aI180
aI180
aI180
aI180
aI385
aI385
aI385
aI385
aI385
aI380
aI380
aI380
aI380
aI380
aI210
aI210
aI210
aI210
aI210
aI410
aI410
aI410
aI410
aI410
aI240
aI240
aI240
aI240
aI240
aI240
aI455
aI455
aI455
aI105
aI105
aI105
aI105
aI105
aI210
aI210
aI210
aI210
aI210
aI155
aI155
aI155
aI155
aI155
aI155
aI335
aI335
aI335
aI335
aI335
aI210
aI210
aI210
aI210
aI210
aI210
aI210
aI210
aI210
aI450
aI450
aI450
aI450
aI135
aI135
aI135
aI75
aI75
aI75
aI75
aI75
aI135
aI135
aI135
aI135
aI135
aI210
aI210
aI210
aI210
aI210
aI120
aI120
aI120
aI120
aI120
aI210
aI210
aI210
aI210
aI210
aI210
aI240
aI240
aI240
aI240
aI240
aI240
aI240
aI240
aI240
aI420
aI420
aI420
aI420
aI335
aI335
aI335
aI335
aI105
aI105
aI105
aI105
aI105
aI245
aI245
aI245
aI245
aI105
aI105
aI105
aI105
aI105
aI210
aI210
aI210
aI210
aI210
aI210
aI210
aI210
aI210
aI595
aI595
aI595
aI595
aI180
aI180
aI180
aI180
aI180
aI160
aI160
aI160
aI160
aI105
aI105
aI105
aI105
aI105
aI105
aI105
aI105
aI105
aI180
aI180
aI180
aI105
aI105
aI105
aI105
aI120
aI120
aI120
aI120
aI120
aI120
aI120
aI120
aI120
aI440
aI440
aI440
aI440
aI440
aI440
aI440
aI440
aI440
aI625
aI625
aI625
aI625
aI625
aI210
aI210
aI210
aI210
aI155
aI155
aI155
aI155
aI155
aI355
aI355
aI355
aI355
aI355
aI355
aI445
aI445
aI445
aI445
aI105
aI105
aI105
aI105
aI105
aI210
aI210
aI210
aI210
aI210
aI265
aI265
aI265
aI265
aI265
aI125
aI125
aI125
aI125
aI125
aI125
aI125
aI125
aI125
aI125
aI125
aI245
aI245
aI245
aI245
aI245
aI325
aI325
aI325
aI35
aI35
aI35
aI35
aI35
aI35
aI35
aI35
aI35
aI35
aI460
aI460
aI460
aI460
aI105
aI105
aI105
aI105
aI105
aI105
aI105
aI105
aI105
aI105
aI105
aI215
aI215
aI215
aI30
aI30
aI30
aI30
aI30
aI30
aI70
aI70
aI30
aI30
aI30
aI30
aI15
aI15
aI15
aI15
aI15
aI15
aI15
aI75
aI75
aI75
aI75
aI75
aI75
aI75
aI75
aI185
aI185
aI185
aI185
aI185
aI155
aI155
aI155
aI155
aI120
aI120
aI120
aI120
aI120
aI120
aI120
aI120
aI510
aI510
aI510
aI510
aI510
aI155
aI155
aI155
aI155
aI155
aI395
aI395
aI65
aI65
aI65
aI65
aI65
aI65
aI95
aI95
aI95
aI95
aI95
aI215
aI215
aI215
aI215
aI215
aI70
aI70
aI70
aI50
aI50
aI50
aI50
aI105
aI105
aI105
aI105
aI15
aI15
aI5
aI5
aI20
aI20
aI20
aI30
aI30
aI30
aI25
aI25
aI25
aI40
aI40
aI40
aI20
aI20
aI20
aI20
aI30
aI30
aI30
aI30
aI30
aI30
aI105
aI105
aI105
aI105
aI80
aI80
aI80
aI80
aI125
aI125
aI125
aI125
aI125
aI385
aI385
aI385
aI385
aI385
aI385
aI235
aI235
aI235
aI235
aI235
aI235
aI235
aI275
aI275
aI275
aI275
aI275
aI30
aI30
aI30
aI60
aI60
aI60
aI30
aI30
aI30
aI30
aI30
aI130
aI130
aI130
aI130
aI130
aI135
aI135
aI135
aI135
aI105
aI105
aI105
aI105
aI105
aI105
aI105
aI105
aI105
aI105
aI160
aI160
aI160
aI160
aI120
aI120
aI120
aI30
aI30
aI30
aI30
aI30
aI30
aI30
aI235
aI235
aI235
aI235
aI235
aI235
aI235
aI235
aI290
aI290
aI290
aI290
aI290
aI175
aI175
aI175
aI175
aI175
aI175
aI180
aI180
aI180
aI180
aI180
aI180
aI180
aI180
aI380
aI380
aI380
aI0
aI0
aI0
aI0
aI0
aI0
aI0
aI0
aI0
aI0
aI0
aI0
aI335
aI335
aI0
aI0
aI0
aI0
aI30
aI30
aI30
aI30
aI105
aI105
aI15
aI15
aI15
aI15
aI15
aI15
aI125
aI125
aI125
aI125
aI90
aI90
aI90
aI90
aI90
aI195
aI195
aI195
aI195
aI195
aI155
aI155
aI155
aI155
aI155
aI155
aI155
aI155
aI330
aI330
aI330
aI330
aI330
aI5
aI5
aI5
aI5
aI5
aI5
aI130
aI130
aI130
aI130
aI35
aI35
aI15
aI15
aI15
aI15
aI30
aI30
aI30
aI75
aI75
aI75
aI105
aI105
aI105
aI105
aI105
aI120
aI120
aI120
aI120
aI120
aI120
aI120
aI225
aI225
aI225
aI225
aI350
aI350
aI350
aI75
aI75
aI75
aI75
aI75
aI125
aI125
aI125
aI125
aI125
aI340
aI340
aI340
aI340
aI105
aI105
aI105
aI105
aI105
aI105
aI50
aI50
aI50
aI50
aI50
aI50
aI100
aI100
aI100
aI100
aI160
aI160
aI160
aI160
aI0
aI0
aI0
aI0
aI20
aI20
aI20
aI20
aI35
aI35
aI35
aI15
aI15
aI15
aI15
aI15
aI15
aI185
aI185
aI185
aI185
aI30
aI30
aI30
aI30
aI10
aI10
aI10
aI20
aI20
aI20
aI50
aI50
aI50
aI15
aI15
aI15
aI15
aI15
aI30
aI30
aI30
aI15
aI15
aI15
aI15
aI15
aI15
aI275
aI275
aI5
aI5
aI5
aI5
aI5
aI5
aI30
aI30
aI30
aI30
aI30
aI30
aI30
aI30
aI35
aI35
aI35
aI35
aI35
aI35
aI35
aI35
aI35
aI35
aI35
aI35
aI35
aI35
aI165
aI165
aI165
aI5
aI5
aI5
aI5
aI30
aI30
aI30
aI30
aI185
aI185
aI185
aI185
aI185
aI105
aI105
aI105
aI105
aI105
aI110
aI110
aI110
aI110
aI30
aI30
aI30
aI30
aI30
aI430
aI430
aI430
aI430
aI430
aI110
aI110
aI5
aI5
aI5
aI5
aI15
aI15
aI15
aI15
aI15
aI50
aI50
aI50
aI50
aI50
aI50
aI80
aI80
aI80
aI75
aI75
aI75
aI75
aI55
aI55
aI55
aI55
aI55
aI55
aI55
aI55
aI55
aI85
aI85
aI85
aI85
aI85
aI85
aI230
aI230
aI230
aI230
aI115
aI115
aI115
aI115
aI115
aI115
aI115
aI215
aI215
aI215
aI215
aI55
aI55
aI55
aI55
aI75
aI75
aI30
aI30
aI30
aI30
aI75
aI75
aI75
aI75
aI75
aI110
aI110
aI110
aI50
aI50
aI50
aI50
aI50
aI50
aI50
aI50
aI50
aI50
aI115
aI115
aI30
aI30
aI30
aI55
aI55
aI55
aI55
aI80
aI80
aI80
aI80
aI30
aI30
aI30
aI30
aI30
aI60
aI60
aI60
aI60
aI60
aI60
aI90
aI90
aI90
aI90
aI90
aI210
aI210
aI210
aI210
aI210
aI210
aI285
aI285
aI285
aI285
aI155
aI155
aI155
aI155
aI155
aI155
aI155
aI155
aI170
aI170
aI170
aI115
aI115
aI115
aI115
aI115
aI115
aI115
aI145
aI145
aI80
aI80
aI80
aI80
aI105
aI105
aI105
aI105
aI105
aI105
aI105
aI130
aI130
aI130
aI130
aI145
aI145
aI145
aI145
aI145
aI105
aI105
aI105
aI50
aI50
aI50
aI50
aI50
aI105
aI105
aI105
aI50
aI50
aI50
aI50
aI30
aI30
aI30
aI30
aI35
aI35
aI35
aI35
aI35
aI35
aI35
aI35
aI75
aI75
aI75
aI75
aI75
aI75
aI75
aI145
aI145
aI145
aI145
aI110
aI110
aI110
aI110
aI105
aI105
aI50
aI50
aI50
aI50
aI105
aI105
aI105
aI105
aI105
aI105
aI105
aI105
aI105
aI110
aI110
aI110
aI110
aI110
aI105
aI105
aI30
aI30
aI30
aI30
aI30
aI135
aI135
aI135
aI135
aI105
aI105
aI105
aI105
aI105
aI110
aI110
aI110
aI110
aI105
aI105
aI105
aI105
aI105
aI105
aI105
aI105
aI105
aI105
aI105
aI105
aI105
aI105
aI105
aI120
aI120
aI120
aI120
aI105
aI105
aI105
aI105
aI75
aI75
aI75
aI75
aI75
aI75
aI75
aI75
aI120
aI120
aI120
aI120
aI50
aI50
aI50
aI50
aI50
aI50
aI50
aI50
aI165
aI165
aI30
aI30
aI15
aI15
aI15
aI15
aI15
aI15
aI30
aI30
aI30
aI30
aI30
aI30
aI30
aI30
aI30
aI30
aI30
aI30
aI50
aI50
aI15
aI15
aI15
aI15
aI105
aI105
aI105
aI105
aI80
aI80
aI80
aI50
aI50
aI5
aI5
aI5
aI30
aI30
aI15
aI15
aI5
aI5
aI5
aI5
aI30
aI30
aI5
aI5
aI5
aI5
aI75
aI75
aI75
aI75
aI75
aI75
aI30
aI30
aI30
aI30
aI30
aI30
aI30
aI90
aI90
aI90
aI90
aI90
aI135
aI135
aI135
aI135
aI80
aI80
aI80
aI80
aI105
aI105
aI105
aI105
aI105
aI145
aI145
aI45
aI45
aI45
aI45
aI95
aI95
aI95
aI75
aI75
aI75
aI75
aI75
aI180
aI180
aI180
aI180
aI180
aI185
aI185
aI185
aI185
aI110
aI110
aI110
aI110
aI110
aI110
aI110
aI280
aI280
aI30
aI30
aI30
aI30
aI75
aI75
aI75
aI30
aI30
aI30
aI30
aI5
aI5
aI5
aI30
aI30
aI30
aI30
aI75
aI75
aI75
aI75
aI75
aI75
aI75
aI75
aI110
aI110
aI110
aI50
aI50
aI50
aI90
aI90
aI90
aI90
aI55
aI55
aI55
aI55
aI85
aI85
aI85
aI85
aI65
aI65
aI65
aI15
aI15
aI15
aI15
aI15
aI30
aI30
aI30
aI90
aI90
aI90
aI90
aI75
aI75
aI75
aI75
aI75
aI115
aI115
aI115
aI115
aI105
aI105
aI105
aI50
aI50
aI30
aI30
aI15
aI15
aI15
aI15
aI125
aI125
aI125
aI125
aI125
aI125
aI95
aI95
aI95
aI95
aI105
aI105
aI105
aI105
aI105
aI105
aI95
aI95
aI95
aI95
aI85
aI85
aI60
aI60
aI60
aI60
aI60
aI340
aI340
aI340
aI340
aI75
aI75
aI75
aI75
aI75
aI75
aI75
aI75
aI75
aI75
aI195
aI195
aI195
aI195
aI70
aI70
aI70
aI60
aI60
aI60
aI60
aI55
aI55
aI55
aI25
aI25
aI25
aI25
aI80
aI80
aI80
aI80
aI60
aI60
aI60
aI60
aI60
aI60
aI135
aI135
aI135
aI135
aI180
aI180
aI180
aI180
aI180
aI180
aI305
aI305
aI30
aI30
aI30
aI30
aI30
aI75
aI75
aI30
aI30
aI30
aI30
aI20
aI20
aI20
aI20
aI105
aI105
aI105
aI105
aI355
aI355
aI355
aI355
aI105
aI105
aI105
aI50
aI50
aI50
aI50
aI25
aI25
aI25
aI30
aI30
aI30
aI30
aI15
aI15
aI15
aI15
aI120
aI120
aI120
aI120
aI80
aI80
aI80
aI80
aI120
aI120
aI120
aI120
aI120
aI70
aI70
aI70
aI70
aI70
aI70
aI70
aI70
aI110
aI110
aI30
aI30
aI30
aI30
aI30
aI150
aI150
aI150
aI30
aI30
aI30
aI15
aI15
aI35
aI35
aI35
aI35
aI95
aI95
aI95
aI95
aI95
aI95
aI95
aI60
aI60
aI60
aI60
aI75
aI75
aI75
aI75
aI60
aI60
aI60
aI60
aI60
aI50
aI50
aI50
aI20
aI20
aI20
aI20
aI40
aI40
aI40
aI40
aI40
aI40
aI285
aI285
aI285
aI285
aI70
aI70
aI70
aI30
aI30
aI30
aI30
aI75
aI75
aI75
aI150
aI150
aI150
aI150
aI125
aI125
aI125
aI125
aI85
aI85
aI50
aI50
aI15
aI15
aI15
aI35
aI35
aI35
aI35
aI70
aI70
aI70
aI70
aI115
aI115
aI115
aI115
aI115
aI205
aI205
aI205
aI205
aI75
aI75
aI75
aI75
aI25
aI25
aI25
aI25
aI25
aI25
aI130
aI130
aI130
aI130
aI300
aI300
aI300
aI300
aI85
aI85
aI85
aI80
aI80
aI80
aI80
aI55
aI55
aI55
aI55
aI55
aI55
aI55
aI160
aI160
aI160
aI160
aI70
aI70
aI70
aI70
aI70
aI70
aI175
aI175
aI175
aI150
aI150
aI150
aI30
aI30
aI30
aI30
aI110
aI110
aI110
aI110
aI110
aI110
aI110
aI110
aI110
aI110
aI365
aI365
aI365
aI365
aI140
aI140
aI140
aI30
aI30
aI30
aI30
aI80
aI80
aI80
aI55
aI55
aI55
aI50
aI50
aI50
aI30
aI30
aI30
aI30
aI30
aI145
aI145
aI145
aI35
aI35
aI35
aI35
aI35
aI30
aI30
aI30
aI30
aI30
aI45
aI45
aI10
aI10
aI10
aI40
aI40
aI40
aI40
aI40
aI40
aI40
aI90
aI90
aI90
aI90
aI40
aI40
aI40
aI40
aI70
aI70
aI70
aI70
aI60
aI60
aI0
aI0
aI0
aI0
aI0
aI0
aI0
aI0
aI0
aI135
aI135
aI135
aI135
aI25
aI25
aI25
aI55
aI55
aI55
aI55
aI55
aI150
aI150
aI150
aI150
aI150
aI150
aI150
aI175
aI175
aI175
aI105
aI105
aI105
aI105
aI105
aI105
aI105
aI105
aI105
aI105
aI105
aI105
aI50
aI50
aI50
aI50
aI50
aI50
aI90
aI90
aI10
aI10
aI10
aI10
aI10
aI90
aI90
aI90
aI30
aI30
aI30
aI90
aI90
aI90
aI75
aI75
aI75
aI75
aI75
aI135
aI135
aI135
aI135
aI135
aI45
aI45
aI45
aI45
aI45
aI45
aI45
aI45
aI95
aI95
aI75
aI75
aI75
aI75
aI105
aI105
aI105
aI105
aI25
aI25
aI30
aI30
aI30
aI30
aI30
aI30
aI30
aI40
aI40
aI40
aI40
aI40
aI40
aI40
aI310
aI310
aI310
aI310
aI310
aI310
aI350
aI350
aI350
aI350
aI350
aI350
aI350
aI150
aI150
aI150
aI10
aI10
aI10
aI10
aI10
aI90
aI90
aI90
aI90
aI90
aI15
aI15
aI15
aI30
aI30
aI30
aI25
aI25
aI25
aI75
aI75
aI75
aI75
aI75
aI75
aI75
aI135
aI135
aI135
aI135
aI135
aI135
aI135
aI210
aI210
aI210
aI210
aI210
aI135
aI135
aI135
aI110
aI110
aI110
aI110
aI120
aI120
aI120
aI120
aI90
aI90
aI90
aI90
aI105
aI105
aI105
aI105
aI45
aI45
aI45
aI45
aI45
aI45
aI85
aI85
aI85
aI45
aI45
aI45
aI45
aI45
aI160
aI160
aI160
aI160
aI160
aI70
aI70
aI70
aI15
aI15
aI15
aI15
aI15
aI15
aI15
aI20
aI20
aI20
aI20
aI105
aI105
aI75
aI75
aI75
aI75
aI75
aI155
aI155
aI155
aI50
aI50
aI50
aI50
aI50
aI50
aI190
aI190
aI190
aI75
aI75
aI75
aI75
aI80
aI80
aI80
aI80
aI140
aI140
aI40
aI40
aI40
aI40
aI40
aI40
aI145
aI145
aI145
aI55
aI55
aI55
aI55
aI55
aI55
aI55
aI55
aI155
aI155
aI155
aI155
aI155
aI155
aI240
aI240
aI240
aI60
aI60
aI60
aI110
aI110
aI110
aI110
aI110
aI150
aI150
aI150
aI150
aI120
aI120
aI120
aI120
aI120
aI120
aI120
aI120
aI120
aI120
aI35
aI35
aI35
aI35
aI35
aI35
aI35
aI35
aI130
aI130
aI35
aI35
aI35
aI35
aI105
aI105
aI105
aI105
aI30
aI30
aI30
aI0
aI0
aI0
aI0
aI55
aI55
aI55
aI55
aI55
aI55
aI160
aI160
aI160
aI35
aI35
aI35
aI20
aI20
aI20
aI20
aI20
aI135
aI135
aI135
aI10
aI10
aI10
aI105
aI105
aI105
aI105
aI45
aI45
aI45
aI45
aI45
aI45
aI45
aI45
aI45
aI40
aI40
aI40
aI40
aI40
aI40
aI105
aI105
aI105
aI30
aI30
aI30
aI30
aI30
aI130
aI130
aI130
aI130
aI130
aI130
aI130
aI130
aI130
aI130
aI130
aI130
aI100
aI100
aI100
aI100
aI10
aI10
aI10
aI75
aI75
aI75
aI75
aI5
aI5
aI5
aI5
aI5
aI5
aI5
aI5
aI105
aI105
aI105
aI105
aI105
aI105
aI105
aI105
aI105
aI105
aI60
aI60
aI60
aI60
aI70
aI70
aI70
aI50
aI50
aI50
aI50
aI50
aI50
aI135
aI135
aI70
aI70
aI70
aI45
aI45
aI45
aI45
aI45
aI40
aI40
aI40
aI45
aI45
aI45
aI45
aI30
aI30
aI30
aI25
aI25
aI25
aI50
aI50
aI50
aI50
aI50
aI50
aI50
aI50
aI50
aI50
aI140
aI140
aI140
aI140
aI140
aI140
aI130
aI130
aI130
aI130
aI45
aI45
aI30
aI30
aI30
aI30
aI30
aI120
aI120
aI120
aI120
aI65
aI65
aI65
aI65
aI65
aI65
aI65
aI65
aI295
aI295
aI295
aI45
aI45
aI45
aI60
aI60
aI60
aI60
aI60
aI35
aI35
aI10
aI10
aI10
aI10
aI10
aI10
aI255
aI255
aI255
aI255
aI255
aI125
aI125
aI10
aI10
aI35
aI35
aI35
aI35
aI35
aI80
aI80
aI80
aI80
aI45
aI45
aI40
aI40
aI40
aI40
aI40
aI40
aI75
aI75
aI75
aI75
aI45
aI45
aI45
aI10
aI10
aI10
aI10
aI10
aI10
aI155
aI155
aI155
aI30
aI30
aI30
aI30
aI30
aI105
aI105
aI105
aI5
aI5
aI5
aI5
aI5
aI5
aI35
aI35
aI35
aI35
aI35
aI35
aI80
aI80
aI80
aI50
aI50
aI50
aI50
aI80
aI80
aI80
aI80
aI80
aI80
aI80
aI80
aI80
aI80
aI80
aI150
aI150
aI150
aI150
aI150
aI150
aI150
aI280
aI280
aI280
aI280
aI280
aI280
aI90
aI90
aI90
aI90
aI195
aI195
aI195
aI195
aI65
aI65
aI65
aI105
aI105
aI105
aI105
aI105
aI45
aI45
aI65
aI65
aI65
aI65
aI65
aI140
aI140
aI140
aI85
aI85
aI20
aI20
aI35
aI35
aI5
aI5
aI55
aI55
aI55
aI55
aI55
aI55
aI300
aI300
aI300
aI300
aI300
aI70
aI70
aI70
aI70
aI70
aI70
aI215
aI215
aI215
aI215
aI215
aI45
aI45
aI45
aI45
aI45
aI45
aI45
aI75
aI75
aI75
aI75
aI75
aI75
aI70
aI70
aI70
aI30
aI30
aI20
aI20
aI20
aI20
aI20
aI20
aI20
aI20
aI160
aI160
aI160
aI160
aI160
aI150
aI150
aI150
aI150
aI150
aI150
aI150
aI150
aI250
aI250
aI250
aI50
aI50
aI50
aI15
aI15
aI15
aI15
aI40
aI40
aI40
aI40
aI5
aI5
aI5
aI5
aI5
aI5
aI185
aI185
aI185
aI10
aI10
aI10
aI20
aI20
aI20
aI20
aI50
aI50
aI50
aI35
aI35
aI35
aI35
aI70
aI70
aI70
aI10
aI10
aI10
aI10
aI10
aI10
aI10
aI10
aI370
aI370
aI370
aI370
aI50
aI50
aI50
aI50
aI50
aI185
aI185
aI185
aI185
aI185
aI185
aI165
aI165
aI165
aI165
aI165
aI165
aI165
aI130
aI130
aI15
aI15
aI15
aI15
aI90
aI90
aI15
aI15
aI10
aI10
aI15
aI15
aI15
aI15
aI25
aI25
aI25
aI130
aI130
aI130
aI130
aI55
aI55
aI55
aI25
aI25
aI25
aI25
aI60
aI60
aI5
aI5
aI5
aI5
aI25
aI25
aI25
aI25
aI25
aI25
aI25
aI25
aI25
aI25
aI310
aI310
aI310
aI310
aI65
aI65
aI65
aI65
aI110
aI110
aI70
aI70
aI70
aI70
aI75
aI75
aI75
aI45
aI45
aI45
aI45
aI80
aI80
aI80
aI80
aI30
aI30
aI5
aI5
aI5
aI5
aI5
aI130
aI130
aI130
aI10
aI10
aI5
aI5
aI5
aI5
aI5
aI350
aI350
aI350
aI350
aI50
aI50
aI50
aI50
aI45
aI45
aI45
aI45
aI45
aI85
aI85
aI5
aI5
aI5
aI5
aI5
aI85
aI85
aI85
aI55
aI55
aI55
aI55
aI55
aI115
aI115
aI115
aI115
aI115
aI115
aI135
aI135
aI135
aI135
aI135
aI135
aI135
aI135
aI455
aI455
aI455
aI455
aI455
aI160
aI160
aI160
aI160
aI30
aI30
aI30
aI30
aI35
aI35
aI35
aI35
aI45
aI45
aI45
aI45
aI45
aI65
aI65
aI65
aI65
aI180
aI180
aI180
aI80
aI80
aI80
aI80
aI80
aI75
aI75
aI75
aI75
aI75
aI205
aI205
aI205
aI205
aI205
aI205
aI120
aI120
aI120
aI120
aI65
aI65
aI65
aI110
aI110
aI110
aI110
aI110
aI155
aI155
aI155
aI155
aI155
aI105
aI105
aI35
aI35
aI35
aI30
aI30
aI30
aI30
aI30
aI115
aI115
aI115
aI115
aI115
aI115
aI135
aI135
aI135
aI70
aI70
aI70
aI70
aI70
aI70
aI150
aI150
aI150
aI150
aI60
aI60
aI60
aI60
aI45
aI45
aI45
aI95
aI95
aI95
aI95
aI95
aI110
aI110
aI110
aI110
aI110
aI95
aI95
aI95
aI20
aI20
aI20
aI10
aI10
aI10
aI35
aI35
aI35
aI20
aI20
aI20
aI20
aI65
aI65
aI65
aI35
aI35
aI35
aI60
aI60
aI60
aI60
aI60
aI60
aI60
aI195
aI195
aI195
aI50
aI50
aI50
aI50
aI140
aI140
aI140
aI140
aI60
aI60
aI60
aI60
aI60
aI175
aI175
aI175
aI175
aI75
aI75
aI20
aI20
aI20
aI20
aI20
aI20
aI20
aI265
aI265
aI265
aI265
aI265
aI30
aI30
aI30
aI30
aI85
aI85
aI85
aI85
aI70
aI70
aI70
aI30
aI30
aI45
aI45
aI45
aI45
aI45
aI45
aI45
aI225
aI225
aI225
aI225
aI225
aI125
aI125
aI55
aI55
aI25
aI25
aI25
aI25
aI25
aI25
aI170
aI170
aI170
aI170
aI170
aI60
aI60
aI60
aI20
aI20
aI20
aI20
aI35
aI35
aI35
aI35
aI65
aI65
aI65
aI65
aI65
aI65
aI160
aI160
aI160
aI160
aI160
aI230
aI230
aI230
aI35
aI35
aI35
aI65
aI65
aI65
aI65
aI65
aI115
aI115
aI115
aI115
aI20
aI20
aI20
aI20
aI45
aI45
aI15
aI15
aI15
aI75
aI75
aI75
aI75
aI20
aI20
aI20
aI50
aI50
aI50
aI30
aI30
aI30
aI30
aI30
aI30
aI30
aI135
aI135
aI135
aI135
aI70
aI70
aI75
aI75
aI75
aI30
aI30
aI30
aI30
aI120
aI120
aI120
aI120
aI55
aI55
aI55
aI55
aI55
aI215
aI215
aI215
aI215
aI50
aI50
aI50
aI50
aI50
aI110
aI110
aI105
aI105
aI30
aI30
aI30
aI30
aI85
aI85
aI85
aI85
aI85
aI85
aI85
aI85
aI125
aI125
aI125
aI125
aI125
aI115
aI115
aI115
aI115
aI115
aI115
aI95
aI95
aI95
aI95
aI15
aI15
aI15
aI15
aI15
aI115
aI115
aI115
aI115
aI90
aI90
aI90
aI90
aI115
aI115
aI115
aI115
aI115
aI135
aI135
aI135
aI135
aI5
aI5
aI5
aI5
aI135
aI135
aI135
aI135
aI135
aI175
aI175
aI175
aI90
aI90
aI90
aI90
aI90
aI90
aI90
aI90
aI90
aI215
aI215
aI215
aI215
aI215
aI85
aI85
aI85
aI85
aI85
aI85
aI185
aI185
aI185
aI50
aI50
aI50
aI20
aI20
aI20
aI30
aI30
aI30
aI15
aI15
aI15
aI15
aI60
aI60
aI60
aI60
aI80
aI80
aI80
aI80
aI80
aI105
aI105
aI105
aI15
aI15
aI15
aI55
aI55
aI55
aI55
aI70
aI70
aI70
aI70
aI110
aI110
aI110
aI100
aI100
aI100
aI40
aI40
aI40
aI40
aI10
aI10
aI10
aI10
aI210
aI210
aI210
aI210
aI210
aI210
aI255
aI255
aI50
aI50
aI50
aI50
aI100
aI100
aI100
aI35
aI35
aI35
aI15
aI15
aI15
aI15
aI15
asS'rewards_max'
p7
(lp8
I0
aI0
aI0
aI0
aI25
aI0
aI0
aI0
aI0
aI0
aI0
aI0
aI0
aI0
aI0
aI0
aI0
aI0
aI0
aI0
aI0
aI0
aI0
aI0
aI0
aI0
aI0
aI0
aI0
aI0
aI5
aI0
aI10
aI0
aI20
aI0
aI10
aI0
aI0
aI0
aI0
aI0
aI0
aI0
aI0
aI0
aI0
aI5
aI5
aI0
aI0
aI0
aI0
aI0
aI10
aI10
aI0
aI0
aI0
aI0
aI0
aI0
aI0
aI0
aI0
aI0
aI25
aI0
aI15
aI0
aI0
aI0
aI0
aI0
aI0
aI0
aI0
aI0
aI0
aI0
aI0
aI0
aI0
aI0
aI0
aI0
aI0
aI10
aI10
aI0
aI5
aI0
aI0
aI0
aI0
aI0
aI0
aI0
aI0
aI0
aI0
aI10
aI0
aI0
aI0
aI0
aI0
aI0
aI0
aI0
aI0
aI0
aI0
aI10
aI0
aI0
aI30
aI0
aI0
aI0
aI0
aI0
aI0
aI0
aI10
aI0
aI5
aI0
aI0
aI0
aI20
aI20
aI0
aI0
aI5
aI0
aI0
aI5
aI0
aI0
aI0
aI0
aI0
aI0
aI0
aI0
aI0
aI0
aI15
aI25
aI0
aI0
aI0
aI200
aI15
aI0
aI10
aI0
aI0
aI0
aI10
aI0
aI0
aI5
aI0
aI0
aI0
aI0
aI0
aI0
aI0
aI0
aI0
aI0
aI0
aI0
aI0
aI0
aI0
aI0
aI0
aI0
aI0
aI0
aI0
aI5
aI0
aI0
aI0
aI0
aI0
aI0
aI30
aI0
aI0
aI0
aI0
aI0
aI0
aI5
aI0
aI5
aI0
aI0
aI0
aI10
aI0
aI0
aI0
aI0
aI0
aI0
aI0
aI0
aI15
aI0
aI0
aI200
aI0
aI0
aI0
aI0
aI0
aI0
aI0
aI0
aI0
aI0
aI0
aI10
aI0
aI0
aI0
aI0
aI15
aI0
aI5
aI0
aI0
aI0
aI0
aI0
aI0
aI0
aI0
aI0
aI0
aI0
aI0
aI0
aI0
aI0
aI0
aI0
aI10
aI0
aI0
aI0
aI0
aI0
aI0
aI0
aI5
aI10
aI5
aI0
aI30
aI0
aI0
aI0
aI0
aI0
aI0
aI0
aI0
aI0
aI0
aI0
aI5
aI0
aI0
aI15
aI0
aI0
aI0
aI0
aI5
aI5
aI0
aI0
aI5
aI0
aI0
aI0
aI0
aI15
aI0
aI0
aI0
aI0
aI0
aI0
aI30
aI5
aI0
aI0
aI0
aI0
aI0
aI15
aI0
aI0
aI0
aI0
aI0
aI0
aI0
aI0
aI0
aI0
aI0
aI0
aI0
aI0
aI0
aI0
aI0
aI0
aI25
aI0
aI0
aI0
aI0
aI0
aI30
aI0
aI0
aI5
aI30
aI0
aI0
aI0
aI0
aI0
aI10
aI0
aI15
aI0
aI5
aI0
aI0
aI0
aI0
aI0
aI0
aI0
aI0
aI0
aI0
aI0
aI0
aI0
aI0
aI0
aI0
aI30
aI0
aI30
aI0
aI0
aI0
aI0
aI0
aI0
aI0
aI0
aI0
aI20
aI0
aI10
aI0
aI15
aI0
aI0
aI0
aI0
aI25
aI0
aI20
aI20
aI0
aI0
aI0
aI0
aI0
aI0
aI0
aI0
aI10
aI0
aI20
aI25
aI0
aI0
aI0
aI25
aI0
aI0
aI0
aI0
aI0
aI0
aI25
aI200
aI10
aI10
aI0
aI0
aI0
aI0
aI0
aI0
aI0
aI0
aI15
aI0
aI15
aI0
aI10
aI0
aI0
aI0
aI0
aI20
aI0
aI0
aI0
aI30
aI0
aI0
aI0
aI0
aI15
aI0
aI0
aI0
aI0
aI0
aI0
aI0
aI0
aI0
aI0
aI0
aI0
aI0
aI0
aI5
aI0
aI0
aI0
aI0
aI0
aI0
aI0
aI0
aI0
aI0
aI0
aI0
aI0
aI0
aI0
aI0
aI15
aI0
aI0
aI0
aI0
aI0
aI200
aI0
aI0
aI0
aI0
aI0
aI0
aI0
aI0
aI20
aI5
aI0
aI0
aI0
aI5
aI0
aI0
aI0
aI0
aI0
aI0
aI0
aI0
aI0
aI0
aI10
aI15
aI0
aI0
aI0
aI0
aI0
aI0
aI15
aI0
aI0
aI0
aI0
aI0
aI0
aI0
aI0
aI0
aI0
aI15
aI0
aI0
aI10
aI5
aI15
aI0
aI0
aI0
aI0
aI0
aI0
aI0
aI5
aI0
aI0
aI0
aI0
aI0
aI0
aI0
aI10
aI0
aI0
aI20
aI0
aI0
aI0
aI0
aI0
aI0
aI0
aI0
aI0
aI0
aI0
aI10
aI0
aI0
aI0
aI0
aI0
aI0
aI0
aI0
aI0
aI5
aI0
aI5
aI0
aI0
aI0
aI0
aI0
aI0
aI0
aI0
aI0
aI0
aI0
aI0
aI0
aI0
aI0
aI25
aI0
aI0
aI0
aI0
aI0
aI0
aI0
aI0
aI0
aI10
aI5
aI0
aI0
aI0
aI0
aI0
aI0
aI0
aI0
aI0
aI0
aI25
aI20
aI10
aI15
aI200
aI0
aI0
aI0
aI0
aI0
aI0
aI5
aI0
aI0
aI5
aI0
aI0
aI0
aI0
aI0
aI0
aI0
aI0
aI0
aI0
aI0
aI0
aI200
aI5
aI0
aI0
aI0
aI0
aI0
aI0
aI0
aI0
aI0
aI0
aI0
aI10
aI5
aI20
aI0
aI0
aI0
aI0
aI0
aI15
aI0
aI0
aI0
aI0
aI0
aI0
aI0
aI0
aI15
aI0
aI0
aI0
aI0
aI0
aI0
aI0
aI15
aI25
aI0
aI0
aI0
aI15
aI0
aI0
aI0
aI0
aI15
aI0
aI0
aI0
aI0
aI0
aI0
aI0
aI0
aI0
aI0
aI0
aI25
aI0
aI0
aI0
aI10
aI10
aI0
aI0
aI15
aI0
aI0
aI0
aI0
aI0
aI0
aI0
aI0
aI0
aI0
aI0
aI15
aI0
aI20
aI0
aI0
aI0
aI0
aI15
aI5
aI0
aI0
aI0
aI20
aI0
aI5
aI0
aI0
aI0
aI0
aI10
aI0
aI0
aI0
aI0
aI0
aI0
aI0
aI0
aI0
aI0
aI5
aI0
aI0
aI0
aI0
aI15
aI0
aI15
aI0
aI15
aI0
aI0
aI0
aI0
aI0
aI0
aI15
aI15
aI0
aI0
aI30
aI0
aI0
aI10
aI15
aI0
aI0
aI0
aI5
aI20
aI0
aI0
aI5
aI20
aI0
aI0
aI0
aI15
aI0
aI10
aI0
aI10
aI0
aI0
aI0
aI0
aI0
aI0
aI0
aI0
aI0
aI0
aI10
aI0
aI0
aI0
aI0
aI0
aI0
aI0
aI30
aI0
aI0
aI0
aI20
aI0
aI0
aI0
aI0
aI15
aI0
aI0
aI0
aI0
aI0
aI0
aI10
aI0
aI0
aI0
aI0
aI0
aI0
aI10
aI0
aI0
aI0
aI0
aI30
aI0
aI0
aI0
aI0
aI0
aI0
aI10
aI0
aI0
aI20
aI0
aI0
aI0
aI0
aI15
aI0
aI0
aI0
aI0
aI0
aI0
aI0
aI0
aI5
aI0
aI0
aI0
aI0
aI0
aI5
aI0
aI0
aI0
aI15
aI0
aI5
aI0
aI0
aI5
aI20
aI0
aI0
aI0
aI0
aI0
aI0
aI0
aI0
aI0
aI0
aI0
aI5
aI0
aI25
aI0
aI0
aI0
aI0
aI0
aI0
aI0
aI0
aI0
aI0
aI0
aI0
aI0
aI0
aI15
aI0
aI0
aI0
aI0
aI0
aI0
aI5
aI0
aI10
aI0
aI0
aI0
aI0
aI0
aI0
aI0
aI25
aI0
aI0
aI0
aI0
aI0
aI0
aI0
aI0
aI0
aI0
aI0
aI20
aI0
aI0
aI0
aI0
aI0
aI0
aI0
aI0
aI0
aI0
aI0
aI25
aI0
aI0
aI0
aI0
aI0
aI0
aI0
aI0
aI0
aI0
aI0
aI0
aI0
aI0
aI0
aI200
aI0
aI0
aI0
aI0
aI0
aI0
aI0
aI0
aI20
aI0
aI0
aI0
aI25
aI0
aI0
aI10
aI0
aI0
aI10
aI0
aI0
aI0
aI0
aI0
aI0
aI0
aI5
aI0
aI0
aI0
aI0
aI0
aI0
aI0
aI0
aI25
aI5
aI5
aI0
aI0
aI0
aI0
aI0
aI0
aI0
aI15
aI0
aI0
aI0
aI0
aI0
aI0
aI0
aI0
aI25
aI0
aI15
aI0
aI0
aI0
aI0
aI0
aI0
aI15
aI10
aI0
aI0
aI10
aI0
aI0
aI0
aI0
aI5
aI0
aI0
aI0
aI0
aI0
aI0
aI0
aI0
aI0
aI5
aI0
aI0
aI0
aI15
aI0
aI0
aI0
aI0
aI0
aI0
aI0
aI0
aI0
aI0
aI0
aI0
aI0
aI0
aI0
aI0
aI0
aI0
aI15
aI0
aI0
aI5
aI0
aI0
aI0
aI0
aI0
aI0
aI25
aI0
aI10
aI0
aI0
aI0
aI0
aI0
aI0
aI0
aI0
aI0
aI0
aI15
aI5
aI0
aI0
aI0
aI0
aI0
aI0
aI0
aI0
aI0
aI0
aI0
aI0
aI0
aI0
aI0
aI0
aI0
aI0
aI0
aI0
aI0
aI25
aI0
aI0
aI0
aI0
aI0
aI25
aI5
aI25
aI0
aI0
aI0
aI10
aI20
aI0
aI0
aI0
aI0
aI0
aI10
aI0
aI0
aI15
aI0
aI0
aI0
aI0
aI0
aI0
aI0
aI15
aI0
aI0
aI0
aI10
aI10
aI0
aI0
aI0
aI0
aI0
aI0
aI0
aI0
aI0
aI15
aI0
aI0
aI0
aI5
aI0
aI0
aI0
aI10
aI0
aI0
aI0
aI0
aI0
aI0
aI0
aI20
aI0
aI0
aI0
aI0
aI5
aI0
aI0
aI0
aI0
aI5
aI0
aI0
aI15
aI0
aI0
aI15
aI0
aI0
aI0
aI0
aI5
aI0
aI0
aI0
aI0
aI15
aI0
aI0
aI0
aI0
aI0
aI0
aI0
aI10
aI0
aI0
aI10
aI0
aI10
aI0
aI20
aI0
aI10
aI10
aI0
aI5
aI0
aI0
aI0
aI0
aI0
aI0
aI0
aI10
aI10
aI0
aI0
aI0
aI0
aI0
aI0
aI0
aI0
aI0
aI0
aI0
aI0
aI0
aI20
aI0
aI15
aI0
aI0
aI0
aI30
aI0
aI0
aI0
aI0
aI0
aI0
aI0
aI10
aI0
aI0
aI5
aI0
aI25
aI0
aI0
aI0
aI10
aI0
aI0
aI0
aI0
aI0
aI0
aI0
aI0
aI0
aI0
aI0
aI0
aI0
aI0
aI0
aI10
aI0
aI0
aI15
aI15
aI0
aI0
aI0
aI0
aI15
aI0
aI0
aI0
aI0
aI20
aI10
aI0
aI0
aI0
aI0
aI0
aI0
aI0
aI0
aI5
aI0
aI0
aI10
aI0
aI0
aI15
aI5
aI0
aI15
aI0
aI0
aI0
aI10
aI0
aI0
aI0
aI0
aI20
aI0
aI5
aI0
aI0
aI0
aI0
aI0
aI25
aI0
aI0
aI0
aI0
aI0
aI0
aI0
aI0
aI0
aI0
aI0
aI0
aI0
aI0
aI0
aI0
aI10
aI0
aI0
aI0
aI0
aI0
aI0
aI200
aI0
aI0
aI0
aI0
aI0
aI0
aI5
aI0
aI0
aI0
aI0
aI0
aI5
aI25
aI0
aI5
aI5
aI0
aI0
aI0
aI0
aI0
aI0
aI0
aI5
aI5
aI0
aI10
aI0
aI0
aI5
aI0
aI0
aI0
aI0
aI0
aI0
aI0
aI0
aI0
aI0
aI0
aI0
aI0
aI0
aI0
aI0
aI15
aI0
aI0
aI0
aI0
aI0
aI0
aI10
aI0
aI0
aI0
aI0
aI0
aI0
aI0
aI0
aI0
aI25
aI0
aI0
aI0
aI15
aI5
aI0
aI20
aI15
aI0
aI0
aI0
aI0
aI0
aI0
aI0
aI0
aI200
aI5
aI0
aI5
aI0
aI0
aI0
aI0
aI0
aI0
aI0
aI0
aI10
aI15
aI20
aI0
aI0
aI0
aI0
aI0
aI0
aI10
aI0
aI0
aI0
aI0
aI0
aI0
aI0
aI0
aI0
aI0
aI0
aI0
aI10
aI0
aI0
aI0
aI0
aI0
aI10
aI0
aI25
aI5
aI10
aI0
aI0
aI10
aI0
aI0
aI5
aI0
aI0
aI0
aI0
aI0
aI0
aI0
aI0
aI0
aI0
aI0
aI0
aI0
aI0
aI0
aI0
aI0
aI0
aI0
aI0
aI0
aI0
aI0
aI10
aI0
aI0
aI0
aI0
aI0
aI0
aI0
aI0
aI0
aI30
aI0
aI5
aI0
aI0
aI0
aI0
aI0
aI0
aI30
aI0
aI0
aI25
aI0
aI0
aI10
aI0
aI0
aI0
aI0
aI10
aI0
aI10
aI0
aI0
aI0
aI0
aI0
aI0
aI0
aI0
aI0
aI20
aI0
aI0
aI0
aI0
aI0
aI25
aI0
aI0
aI0
aI0
aI0
aI0
aI0
aI15
aI0
aI0
aI0
aI25
aI0
aI0
aI15
aI5
aI0
aI0
aI0
aI0
aI0
aI0
aI15
aI0
aI0
aI0
aI0
aI0
aI0
aI0
aI0
aI0
aI30
aI0
aI0
aI0
aI0
aI0
aI10
aI0
aI0
aI0
aI0
aI0
aI0
aI0
aI0
aI0
aI0
aI0
aI0
aI0
aI0
aI0
aI0
aI0
aI0
aI10
aI0
aI0
aI0
aI0
aI0
aI0
aI25
aI0
aI5
aI0
aI0
aI0
aI0
aI0
aI0
aI0
aI0
aI0
aI20
aI0
aI10
aI0
aI0
aI0
aI0
aI0
aI0
aI0
aI0
aI0
aI0
aI5
aI0
aI0
aI5
aI0
aI0
aI0
aI0
aI0
aI0
aI0
aI20
aI0
aI15
aI0
aI0
aI0
aI0
aI0
aI0
aI0
aI0
aI0
aI0
aI0
aI0
aI0
aI0
aI20
aI0
aI0
aI0
aI0
aI0
aI0
aI0
aI10
aI10
aI0
aI0
aI0
aI0
aI0
aI10
aI0
aI5
aI0
aI0
aI5
aI0
aI0
aI0
aI5
aI0
aI0
aI0
aI25
aI0
aI5
aI0
aI0
aI5
aI30
aI0
aI0
aI0
aI0
aI0
aI5
aI0
aI30
aI0
aI0
aI0
aI15
aI0
aI0
aI5
aI0
aI10
aI5
aI0
aI0
aI0
aI0
aI0
aI0
aI0
aI0
aI0
aI0
aI0
aI10
aI0
aI0
aI0
aI0
aI0
aI0
aI0
aI0
aI0
aI0
aI5
aI0
aI0
aI0
aI0
aI0
aI0
aI0
aI0
aI10
aI0
aI0
aI0
aI0
aI0
aI0
aI0
aI0
aI0
aI0
aI0
aI15
aI0
aI0
aI0
aI0
aI0
aI0
aI0
aI0
aI0
aI0
aI0
aI0
aI0
aI0
aI0
aI0
aI0
aI0
aI0
aI0
aI0
aI0
aI0
aI0
aI0
aI0
aI5
aI0
aI0
aI15
aI0
aI0
aI0
aI0
aI0
aI0
aI0
aI0
aI0
aI20
aI0
aI0
aI0
aI0
aI0
aI0
aI0
aI0
aI10
aI0
aI0
aI15
aI0
aI0
aI0
aI25
aI20
aI0
aI0
aI0
aI0
aI0
aI0
aI0
aI0
aI10
aI0
aI0
aI0
aI0
aI0
aI15
aI0
aI0
aI0
aI0
aI0
aI5
aI0
aI25
aI0
aI0
aI0
aI0
aI0
aI5
aI15
aI0
aI0
aI0
aI0
aI20
aI0
aI0
aI0
aI0
aI5
aI0
aI0
aI0
aI20
aI25
aI0
aI0
aI0
aI0
aI10
aI0
aI0
aI0
aI0
aI0
aI0
aI0
aI0
aI0
aI10
aI10
aI0
aI0
aI0
aI0
aI30
aI0
aI0
aI0
aI0
aI15
aI0
aI0
aI0
aI0
aI0
aI5
aI0
aI0
aI0
aI15
aI0
aI0
aI0
aI0
aI0
aI0
aI0
aI0
aI25
aI0
aI5
aI0
aI5
aI0
aI0
aI25
aI0
aI10
aI0
aI0
aI0
aI0
aI0
aI0
aI0
aI0
aI15
aI0
aI0
aI0
aI0
aI0
aI0
aI0
aI0
aI0
aI0
aI0
aI20
aI0
aI5
aI0
aI0
aI0
aI0
aI0
aI5
aI0
aI0
aI15
aI0
aI0
aI0
aI0
aI0
aI0
aI0
aI0
aI0
aI0
aI0
aI0
aI10
aI10
aI0
aI200
aI10
aI0
aI0
aI0
aI5
aI0
aI0
aI0
aI0
aI10
aI5
aI0
aI0
aI0
aI0
aI0
aI0
aI10
aI15
aI0
aI0
aI0
aI20
aI0
aI0
aI0
aI0
aI10
aI30
aI0
aI0
aI10
aI0
aI0
aI15
aI0
aI0
aI0
aI20
aI0
aI0
aI0
aI0
aI0
aI0
aI10
aI0
aI0
aI0
aI0
aI0
aI5
aI0
aI0
aI5
aI0
aI0
aI0
aI0
aI0
aI0
aI0
aI0
aI0
aI0
aI0
aI0
aI0
aI0
aI0
aI0
aI0
aI0
aI10
aI0
aI0
aI0
aI0
aI0
aI0
aI0
aI0
aI0
aI5
aI10
aI0
aI0
aI25
aI10
aI0
aI0
aI0
aI0
aI5
aI0
aI0
aI0
aI5
aI0
aI0
aI10
aI0
aI0
aI0
aI0
aI5
aI0
aI0
aI0
aI0
aI0
aI0
aI0
aI0
aI5
aI10
aI0
aI0
aI0
aI10
aI0
aI0
aI0
aI0
aI0
aI0
aI0
aI0
aI0
aI0
aI0
aI0
aI0
aI0
aI0
aI10
aI0
aI0
aI0
aI0
aI0
aI0
aI0
aI0
aI0
aI0
aI0
aI0
aI0
aI0
aI0
aI15
aI0
aI0
aI0
aI0
aI0
aI0
aI0
aI0
aI0
aI0
aI0
aI0
aI0
aI0
aI0
aI0
aI0
aI0
aI0
aI0
aI0
aI0
aI0
aI0
aI0
aI0
aI0
aI0
aI0
aI0
aI0
aI25
aI0
aI0
aI0
aI0
aI0
aI5
aI0
aI0
aI0
aI0
aI0
aI0
aI15
aI5
aI0
aI0
aI0
aI0
aI0
aI0
aI0
aI5
aI0
aI0
aI0
aI0
aI0
aI0
aI0
aI5
aI0
aI0
aI5
aI0
aI5
aI5
aI0
aI0
aI0
aI5
aI5
aI0
aI0
aI0
aI5
aI0
aI0
aI0
aI0
aI0
aI0
aI0
aI0
aI0
aI0
aI0
aI0
aI0
aI0
aI0
aI0
aI0
aI15
aI0
aI0
aI0
aI5
aI20
aI0
aI0
aI0
aI5
aI0
aI0
aI0
aI0
aI0
aI0
aI0
aI0
aI0
aI25
aI10
aI200
aI0
aI0
aI0
aI0
aI0
aI15
aI0
aI0
aI0
aI0
aI0
aI0
aI0
aI0
aI0
aI0
aI10
aI0
aI0
aI5
aI0
aI0
aI0
aI0
aI0
aI0
aI0
aI0
aI0
aI0
aI0
aI0
aI10
aI0
aI0
aI5
aI0
aI0
aI10
aI0
aI0
aI0
aI0
aI0
aI0
aI0
aI0
aI25
aI0
aI0
aI0
aI0
aI0
aI5
aI0
aI0
aI0
aI0
aI0
aI0
aI0
aI0
aI0
aI0
aI0
aI0
aI0
aI0
aI0
aI0
aI0
aI0
aI15
aI0
aI0
aI0
aI0
aI0
aI10
aI0
aI0
aI0
aI0
aI10
aI0
aI200
aI0
aI0
aI25
aI200
aI0
aI15
aI0
aI0
aI0
aI0
aI0
aI0
aI0
aI0
aI0
aI10
aI0
aI0
aI0
aI0
aI0
aI0
aI0
aI0
aI5
aI0
aI0
aI0
aI0
aI0
aI0
aI15
aI5
aI0
aI0
aI0
aI0
aI0
aI0
aI20
aI5
aI0
aI0
aI0
aI15
aI15
aI0
aI0
aI0
aI0
aI0
aI0
aI0
aI0
aI0
aI0
aI0
aI0
aI0
aI0
aI0
aI0
aI0
aI0
aI0
aI10
aI0
aI0
aI0
aI0
aI0
aI25
aI0
aI10
aI0
aI0
aI0
aI0
aI0
aI0
aI0
aI0
aI0
aI0
aI10
aI0
aI0
aI0
aI0
aI0
aI5
aI0
aI0
aI0
aI0
aI0
aI0
aI0
aI20
aI0
aI0
aI0
aI5
aI20
aI0
aI0
aI0
aI0
aI0
aI15
aI0
aI25
aI0
aI30
aI0
aI0
aI0
aI10
aI0
aI0
aI5
aI0
aI0
aI0
aI0
aI0
aI0
aI0
aI0
aI0
aI15
aI0
aI0
aI0
aI0
aI0
aI0
aI0
aI0
aI0
aI0
aI0
aI0
aI5
aI0
aI0
aI0
aI0
aI20
aI0
aI0
aI5
aI0
aI0
aI15
aI0
aI15
aI0
aI0
aI0
aI0
aI0
aI0
aI0
aI0
aI0
aI0
aI15
aI20
aI20
aI0
aI0
aI5
aI0
aI0
aI0
aI0
aI15
aI0
aI0
aI0
aI0
aI5
aI0
aI0
aI0
aI15
aI0
aI0
aI0
aI0
aI0
aI0
aI0
aI0
aI5
aI0
aI0
aI15
aI0
aI0
aI0
aI0
aI0
aI0
aI0
aI0
aI0
aI0
aI0
aI0
aI0
aI0
aI0
aI0
aI0
aI15
aI0
aI5
aI0
aI0
aI0
aI0
aI0
aI0
aI0
aI10
aI0
aI0
aI0
aI0
aI15
aI0
aI0
aI0
aI0
aI0
aI0
aI0
aI0
aI10
aI0
aI0
aI0
aI0
aI0
aI0
aI0
aI0
aI0
aI0
aI0
aI0
aI0
aI0
aI0
aI0
aI15
aI10
aI0
aI20
aI0
aI0
aI0
aI0
aI0
aI25
aI0
aI0
aI0
aI0
aI0
aI0
aI0
aI0
aI0
aI0
aI0
aI0
aI5
aI0
aI0
aI0
aI0
aI0
aI0
aI0
aI0
aI0
aI5
aI200
aI5
aI0
aI0
aI0
aI0
aI0
aI0
aI0
aI0
aI0
aI0
aI0
aI0
aI20
aI0
aI0
aI0
aI0
aI0
aI0
aI10
aI0
aI0
aI15
aI0
aI0
aI10
aI0
aI0
aI0
aI0
aI0
aI10
aI0
aI0
aI0
aI0
aI0
aI15
aI0
aI15
aI0
aI25
aI0
aI10
aI0
aI0
aI5
aI0
aI0
aI0
aI0
aI10
aI0
aI15
aI0
aI0
aI0
aI0
aI200
aI0
aI5
aI0
aI0
aI5
aI0
aI0
aI0
aI0
aI0
aI0
aI0
aI0
aI10
aI0
aI0
aI0
aI0
aI0
aI0
aI0
aI5
aI0
aI0
aI0
aI0
aI0
aI0
aI0
aI0
aI0
aI0
aI0
aI0
aI0
aI0
aI0
aI5
aI10
aI0
aI5
aI0
aI0
aI0
aI0
aI0
aI0
aI0
aI0
aI0
aI15
aI0
aI0
aI0
aI10
aI20
aI5
aI0
aI0
aI5
aI0
aI0
aI0
aI0
aI0
aI0
aI0
aI0
aI0
aI0
aI0
aI5
aI15
aI0
aI5
aI20
aI0
aI0
aI0
aI0
aI0
aI0
aI5
aI0
aI5
aI0
aI0
aI0
aI10
aI0
aI5
aI0
aI0
aI0
aI0
aI0
aI0
aI0
aI0
aI0
aI0
aI0
aI0
aI0
aI0
aI0
aI0
aI0
aI0
aI10
aI5
aI0
aI0
aI0
aI5
aI0
aI25
aI0
aI0
aI0
aI0
aI0
aI0
aI0
aI0
aI0
aI0
aI0
aI0
aI0
aI0
aI0
aI0
aI0
aI0
aI0
aI0
aI0
aI0
aI0
aI5
aI0
aI10
aI0
aI10
aI0
aI0
aI0
aI0
aI0
aI0
aI0
aI0
aI0
aI0
aI0
aI0
aI10
aI0
aI0
aI0
aI0
aI0
aI0
aI0
aI0
aI0
aI0
aI0
aI0
aI5
aI5
aI0
aI0
aI0
aI0
aI0
aI0
aI0
aI10
aI0
aI0
aI0
aI0
aI0
aI0
aI0
aI10
aI0
aI0
aI0
aI0
aI0
aI0
aI0
aI0
aI0
aI0
aI0
aI0
aI0
aI0
aI10
aI15
aI0
aI0
aI0
aI10
aI0
aI0
aI0
aI0
aI10
aI0
aI0
aI0
aI0
aI0
aI0
aI0
aI0
aI0
aI0
aI0
aI5
aI0
aI0
aI0
aI0
aI0
aI20
aI25
aI5
aI0
aI0
aI0
aI0
aI0
aI0
aI0
aI0
aI15
aI0
aI0
aI0
aI0
aI0
aI0
aI0
aI0
aI0
aI0
aI0
aI0
aI0
aI0
aI0
aI0
aI0
aI10
aI0
aI0
aI0
aI0
aI0
aI10
aI0
aI10
aI0
aI0
aI0
aI0
aI0
aI0
aI0
aI25
aI0
aI0
aI0
aI0
aI0
aI0
aI0
aI5
aI0
aI0
aI0
aI0
aI0
aI0
aI0
aI0
aI10
aI0
aI0
aI0
aI0
aI15
aI25
aI0
aI0
aI0
aI5
aI10
aI0
aI0
aI0
aI0
aI0
aI0
aI0
aI0
aI0
aI0
aI0
aI0
aI10
aI0
aI0
aI0
aI0
aI0
aI0
aI10
aI0
aI0
aI0
aI0
aI0
aI0
aI0
aI0
aI0
aI0
aI0
aI0
aI0
aI0
aI0
aI0
aI10
aI0
aI0
aI0
aI0
aI0
aI0
aI0
aI0
aI0
aI0
aI25
aI0
aI0
aI0
aI0
aI0
aI0
aI0
aI0
aI0
aI0
aI5
aI0
aI0
aI0
aI0
aI0
aI15
aI0
aI0
aI0
aI0
aI0
aI0
aI0
aI0
aI0
aI0
aI0
aI0
aI0
aI0
aI0
aI0
aI0
aI0
aI0
aI0
aI0
aI0
aI0
aI0
aI0
aI10
aI0
aI10
aI0
aI0
aI0
aI0
aI0
aI0
aI0
aI0
aI0
aI0
aI10
aI0
aI0
aI0
aI20
aI10
aI0
aI0
aI0
aI10
aI0
aI0
aI5
aI0
aI0
aI0
aI0
aI5
aI5
aI0
aI0
aI0
aI0
aI0
aI0
aI0
aI0
aI0
aI0
aI0
aI0
aI0
aI0
aI0
aI0
aI5
aI0
aI25
aI0
aI0
aI0
aI0
aI0
aI0
aI0
aI0
aI0
aI0
aI0
aI0
aI0
aI0
aI0
aI0
aI0
aI0
aI0
aI0
aI0
aI0
aI0
aI0
aI0
aI0
aI0
aI0
aI0
aI0
aI0
aI0
aI0
aI0
aI15
aI0
aI0
aI15
aI0
aI0
aI0
aI0
aI0
aI0
aI0
aI0
aI0
aI0
aI0
aI0
aI0
aI0
aI0
aI5
aI0
aI0
aI15
aI0
aI0
aI0
aI15
aI0
aI5
aI0
aI0
aI0
aI0
aI0
aI0
aI0
aI0
aI0
aI0
aI10
aI0
aI0
aI0
aI0
aI0
aI0
aI0
aI0
aI0
aI0
aI0
aI0
aI0
aI10
aI15
aI20
aI0
aI0
aI5
aI0
aI0
aI0
aI10
aI0
aI0
aI0
aI0
aI0
aI0
aI0
aI0
aI0
aI5
aI0
aI10
aI0
aI0
aI15
aI0
aI15
aI5
aI0
aI15
aI0
aI10
aI0
aI0
aI15
aI0
aI0
aI0
aI0
aI0
aI0
aI0
aI0
aI0
aI0
aI0
aI0
aI5
aI0
aI0
aI0
aI0
aI0
aI0
aI0
aI0
aI0
aI0
aI0
aI0
aI0
aI0
aI0
aI0
aI0
aI0
aI0
aI0
aI5
aI0
aI20
aI0
aI0
aI25
aI0
aI0
aI0
aI0
aI0
aI0
aI0
aI0
aI0
aI0
aI0
aI0
aI0
aI0
aI0
aI0
aI0
aI20
aI0
aI10
aI0
aI0
aI0
aI0
aI0
aI0
aI5
aI10
aI0
aI0
aI0
aI0
aI0
aI0
aI0
aI0
aI0
aI5
aI0
aI0
aI20
aI0
aI0
aI0
aI0
aI0
aI0
aI10
aI0
aI0
aI0
aI0
aI0
aI0
aI15
aI0
aI0
aI0
aI0
aI0
aI0
aI0
aI0
aI0
aI0
aI0
aI0
aI0
aI0
aI0
aI0
aI0
aI0
aI0
aI0
aI0
aI0
aI0
aI0
aI0
aI0
aI0
aI0
aI0
aI0
aI0
aI5
aI0
aI0
aI0
aI0
aI0
aI0
aI0
aI15
aI0
aI0
aI0
aI0
aI15
aI0
aI0
aI0
aI0
aI0
aI0
aI0
aI0
aI0
aI0
aI0
aI0
aI0
aI0
aI0
aI15
aI0
aI0
aI0
aI0
aI0
aI5
aI0
aI0
aI0
aI0
aI0
aI10
aI0
aI0
aI0
aI5
aI0
aI0
aI0
aI0
aI0
aI0
aI0
aI0
aI0
aI0
aI0
aI0
aI0
aI0
aI0
aI0
aI0
aI0
aI20
aI0
aI0
aI0
aI0
aI0
aI20
aI0
aI0
aI0
aI0
aI5
aI0
aI5
aI10
aI0
aI0
aI0
aI0
aI0
aI0
aI0
aI0
aI0
aI0
aI0
aI0
aI15
aI0
aI0
aI0
aI0
aI0
aI0
aI0
aI0
aI0
aI0
aI0
aI0
aI0
aI0
aI0
aI10
aI0
aI0
aI0
aI0
aI0
aI0
aI0
aI0
aI0
aI0
aI0
aI0
aI0
aI0
aI0
aI0
aI0
aI0
aI0
aI0
aI0
aI0
aI0
aI0
aI0
aI0
aI0
aI0
aI0
aI0
aI0
aI0
aI0
aI25
aI0
aI0
aI0
aI0
aI0
aI0
aI5
aI0
aI0
aI0
aI0
aI0
aI0
aI0
aI0
aI0
aI0
aI5
aI0
aI15
aI0
aI25
aI0
aI0
aI0
aI0
aI0
aI0
aI0
aI0
aI0
aI0
aI0
aI0
aI0
aI15
aI0
aI0
aI0
aI20
aI0
aI5
aI0
aI0
aI0
aI0
aI0
aI10
aI0
aI0
aI0
aI0
aI0
aI0
aI0
aI0
aI0
aI0
aI25
aI15
aI0
aI5
aI0
aI0
aI0
aI0
aI0
aI0
aI0
aI15
aI0
aI0
aI0
aI0
aI0
aI25
aI0
aI20
aI0
aI0
aI0
aI0
aI0
aI0
aI0
aI0
aI0
aI0
aI0
aI0
aI0
aI0
aI0
aI0
aI0
aI0
aI0
aI0
aI0
aI0
aI0
aI0
aI0
aI0
aI10
aI0
aI0
aI0
aI0
aI0
aI0
aI0
aI10
aI0
aI0
aI0
aI0
aI0
aI0
aI0
aI15
aI5
aI0
aI0
aI5
aI0
aI15
aI0
aI0
aI10
aI0
aI0
aI0
aI0
aI0
aI0
aI0
aI20
aI0
aI5
aI0
aI0
aI0
aI0
aI10
aI0
aI0
aI0
aI0
aI0
aI0
aI0
aI0
aI0
aI5
aI0
aI5
aI0
aI0
aI0
aI10
aI10
aI0
aI15
aI0
aI0
aI0
aI20
aI0
aI0
aI0
aI0
aI10
aI0
aI0
aI5
aI0
aI0
aI0
aI0
aI0
aI0
aI15
aI0
aI0
aI0
aI0
aI0
aI0
aI0
aI5
aI10
aI0
aI0
aI0
aI0
aI5
aI0
aI10
aI0
aI0
aI0
aI0
aI0
aI0
aI0
aI0
aI5
aI5
aI15
aI5
aI20
aI0
aI0
aI0
aI5
aI0
aI0
aI0
aI0
aI0
aI0
aI0
aI0
aI0
aI0
aI0
aI0
aI0
aI0
aI0
aI0
aI0
aI5
aI0
aI0
aI0
aI0
aI0
aI0
aI0
aI0
aI5
aI15
aI0
aI0
aI0
aI0
aI15
aI0
aI0
aI0
aI15
aI0
aI0
aI0
aI0
aI0
aI0
aI30
aI0
aI15
aI0
aI30
aI0
aI0
aI0
aI0
aI0
aI0
aI0
aI0
aI0
aI0
aI0
aI0
aI0
aI10
aI0
aI0
aI20
aI0
aI0
aI0
aI0
aI0
aI10
aI0
aI0
aI0
aI0
aI0
aI0
aI30
aI0
aI10
aI0
aI0
aI0
aI0
aI0
aI10
aI0
aI0
aI0
aI5
aI15
aI0
aI0
aI0
aI15
aI0
aI0
aI0
aI0
aI0
aI0
aI0
aI0
aI0
aI5
aI0
aI25
aI0
aI0
aI0
aI0
aI15
aI0
aI0
aI0
aI0
aI0
aI0
aI0
aI0
aI5
aI0
aI5
aI0
aI10
aI10
aI0
aI0
aI0
aI0
aI0
aI0
aI0
aI0
aI0
aI0
aI0
aI0
aI0
aI0
aI0
aI0
aI0
aI0
aI20
aI0
aI0
aI0
aI0
aI25
aI0
aI0
aI0
aI0
aI0
aI0
aI15
aI10
aI0
aI0
aI0
aI0
aI0
aI0
aI0
aI5
aI0
aI0
aI0
aI0
aI15
aI20
aI0
aI0
aI0
aI0
aI10
aI0
aI0
aI0
aI0
aI5
aI10
aI0
aI0
aI10
aI25
aI0
aI0
aI0
aI0
aI0
aI0
aI5
aI0
aI0
aI0
aI0
aI0
aI0
aI20
aI0
aI5
aI20
aI15
aI0
aI20
aI0
aI10
aI0
aI10
aI0
aI25
aI0
aI20
aI0
aI0
aI0
aI10
aI0
aI0
aI0
aI0
aI0
aI0
aI0
aI0
aI0
aI0
aI0
aI10
aI0
aI0
aI15
aI0
aI0
aI0
aI10
aI0
aI0
aI0
aI0
aI0
aI0
aI0
aI0
aI0
aI25
aI0
aI0
aI0
aI0
aI0
aI0
aI0
aI0
aI0
aI0
aI0
aI0
aI0
aI25
aI0
aI0
aI0
aI0
aI0
aI5
aI0
aI0
aI20
aI0
aI0
aI0
aI15
aI0
aI0
aI0
aI0
aI0
aI0
aI0
aI0
aI0
aI0
aI0
aI5
aI0
aI0
aI0
aI0
aI0
aI15
aI0
aI10
aI0
aI10
aI0
aI0
aI0
aI0
aI10
aI0
aI25
aI5
aI0
aI0
aI0
aI0
aI10
aI0
aI5
aI0
aI0
aI10
aI0
aI0
aI0
aI10
aI0
aI0
aI0
aI0
aI0
aI0
aI30
aI0
aI15
aI0
aI0
aI25
aI0
aI0
aI0
aI0
aI0
aI0
aI0
aI0
aI10
aI0
aI0
aI0
aI0
aI0
aI25
aI0
aI0
aI0
aI0
aI0
aI10
aI0
aI0
aI15
aI0
aI0
aI0
aI5
aI0
aI0
aI0
aI0
aI15
aI0
aI0
aI0
aI0
aI0
aI0
aI5
aI0
aI0
aI0
aI0
aI0
aI0
aI5
aI0
aI0
aI5
aI0
aI0
aI0
aI0
aI0
aI0
aI0
aI0
aI0
aI10
aI5
aI0
aI0
aI0
aI0
aI0
aI0
aI5
aI0
aI0
aI0
aI0
aI0
aI0
aI0
aI0
aI0
aI0
aI0
aI0
aI0
aI0
aI0
aI0
aI0
aI0
aI5
aI15
aI10
aI0
aI0
aI0
aI0
aI0
aI0
aI0
aI0
aI0
aI15
aI0
aI0
aI0
aI0
aI0
aI0
aI0
aI0
aI0
aI0
aI0
aI0
aI0
aI0
aI10
aI0
aI0
aI0
aI0
aI0
aI0
aI0
aI0
aI0
aI10
aI0
aI20
aI0
aI10
aI0
aI0
aI0
aI0
aI0
aI0
aI15
aI0
aI15
aI0
aI0
aI0
aI0
aI10
aI0
aI0
aI0
aI0
aI0
aI0
aI0
aI0
aI0
aI0
aI0
aI0
aI0
aI0
aI0
aI0
aI0
aI0
aI0
aI0
aI20
aI0
aI0
aI0
aI0
aI0
aI0
aI0
aI0
aI0
aI0
aI0
aI0
aI0
aI0
aI0
aI0
aI0
aI0
aI0
aI0
aI0
aI0
aI0
aI5
aI0
aI10
aI0
aI0
aI0
aI0
aI0
aI0
aI0
aI10
aI0
aI0
aI0
aI0
aI0
aI15
aI0
aI0
aI0
aI0
aI0
aI0
aI0
aI0
aI0
aI0
aI10
aI0
aI0
aI0
aI0
aI0
aI0
aI0
aI0
aI0
aI0
aI0
aI0
aI0
aI0
aI20
aI0
aI0
aI0
aI20
aI0
aI0
aI0
aI0
aI0
aI0
aI0
aI0
aI20
aI0
aI0
aI0
aI0
aI0
aI0
aI0
aI0
aI0
aI0
aI0
aI0
aI0
aI0
aI10
aI0
aI5
aI0
aI0
aI0
aI0
aI0
aI0
aI0
aI0
aI5
aI0
aI30
aI0
aI0
aI0
aI0
aI0
aI0
aI0
aI0
aI0
aI0
aI0
aI0
aI0
aI0
aI0
aI0
aI0
aI15
aI0
aI0
aI0
aI0
aI0
aI0
aI0
aI0
aI0
aI0
aI0
aI0
aI0
aI0
aI10
aI0
aI0
aI0
aI0
aI5
aI0
aI0
aI0
aI0
aI0
aI0
aI0
aI0
aI0
aI0
aI0
aI25
aI0
aI0
aI0
aI0
aI0
aI0
aI0
aI0
aI0
aI0
aI0
aI0
aI0
aI0
aI0
aI0
aI5
aI0
aI0
aI10
aI0
aI0
aI0
aI0
aI0
aI15
aI0
aI15
aI0
aI0
aI0
aI0
aI0
aI0
aI0
aI0
aI0
aI0
aI0
aI0
aI0
aI0
aI0
aI0
aI0
aI0
aI0
aI15
aI0
aI0
aI0
aI0
aI0
aI0
aI0
aI10
aI0
aI0
aI10
aI0
aI0
aI30
aI0
aI0
aI0
aI10
aI0
aI10
aI0
aI0
aI5
aI5
aI0
aI0
aI0
aI0
aI0
aI0
aI0
aI0
aI0
aI0
aI0
aI0
aI0
aI0
aI0
aI0
aI0
aI0
aI0
aI10
aI0
aI0
aI0
aI0
aI0
aI0
aI0
aI0
aI0
aI5
aI0
aI0
aI0
aI0
aI0
aI0
aI10
aI0
aI0
aI0
aI5
aI0
aI0
aI0
aI0
aI0
aI0
aI0
aI0
aI0
aI0
aI0
aI0
aI0
aI0
aI5
aI0
aI0
aI0
aI0
aI0
aI0
aI0
aI20
aI0
aI0
aI0
aI0
aI0
aI0
aI0
aI0
aI0
aI0
aI0
aI0
aI0
aI0
aI0
aI0
aI0
aI15
aI0
aI5
aI0
aI0
aI0
aI0
aI0
aI0
aI0
aI0
aI0
aI0
aI0
aI30
aI0
aI0
aI0
aI0
aI0
aI0
aI0
aI0
aI0
aI0
aI25
aI10
aI0
aI0
aI15
aI0
aI0
aI0
aI0
aI0
aI0
aI0
aI0
aI0
aI0
aI0
aI0
aI5
aI0
aI0
aI0
aI0
aI0
aI0
aI0
aI0
aI5
aI10
aI0
aI0
aI5
aI0
aI0
aI0
aI0
aI5
aI0
aI0
aI0
aI15
aI0
aI5
aI0
aI10
aI10
aI0
aI5
aI0
aI0
aI0
aI0
aI0
aI0
aI0
aI0
aI0
aI0
aI0
aI0
aI0
aI0
aI0
aI0
aI0
aI0
aI0
aI0
aI0
aI0
aI0
aI0
aI0
aI0
aI0
aI0
aI0
aI0
aI5
aI5
aI0
aI0
aI0
aI0
aI0
aI0
aI0
aI0
aI5
aI0
aI0
aI0
aI0
aI0
aI0
aI0
aI0
aI10
aI5
aI0
aI0
aI0
aI0
aI0
aI0
aI0
aI0
aI0
aI0
aI0
aI0
aI5
aI0
aI0
aI0
aI0
aI0
aI0
aI0
aI0
aI0
aI0
aI0
aI30
aI0
aI0
aI0
aI0
aI0
aI0
aI0
aI0
aI0
aI0
aI0
aI0
aI0
aI0
aI0
aI0
aI0
aI0
aI0
aI0
aI0
aI0
aI0
aI0
aI0
aI0
aI0
aI0
aI5
aI0
aI0
aI0
aI10
aI10
aI0
aI0
aI0
aI0
aI0
aI0
aI0
aI0
aI0
aI0
aI0
aI15
aI0
aI0
aI0
aI0
aI0
aI0
aI0
aI5
aI10
aI0
aI0
aI0
aI10
aI0
aI0
aI0
aI0
aI30
aI0
aI0
aI0
aI0
aI0
aI0
aI0
aI0
aI0
aI0
aI0
aI0
aI0
aI0
aI15
aI0
aI0
aI0
aI10
aI0
aI0
aI0
aI0
aI0
aI0
aI0
aI0
aI5
aI0
aI0
aI0
aI0
aI0
aI0
aI5
aI0
aI0
aI0
aI0
aI0
aI0
aI0
aI0
aI0
aI0
aI0
aI15
aI0
aI0
aI0
aI15
aI0
aI0
aI0
aI0
aI0
aI0
aI0
aI0
aI0
aI0
aI0
aI10
aI0
aI5
aI0
aI0
aI0
aI0
aI0
aI0
aI0
aI10
aI0
aI0
aI0
aI0
aI0
aI5
aI0
aI0
aI0
aI0
aI0
aI0
aI0
aI0
aI0
aI0
aI0
aI0
aI0
aI0
aI0
aI0
aI0
aI0
aI0
aI0
aI0
aI0
aI0
aI0
aI0
aI0
aI0
aI0
aI0
aI0
aI0
aI0
aI0
aI0
aI0
aI0
aI0
aI0
aI0
aI0
aI0
aI0
aI0
aI0
aI0
aI0
aI0
aI0
aI0
aI0
aI0
aI0
aI0
aI10
aI0
aI0
aI0
aI0
aI20
aI15
aI0
aI0
aI0
aI0
aI0
aI0
aI5
aI10
aI0
aI0
aI0
aI5
aI0
aI0
aI0
aI0
aI0
aI10
aI0
aI0
aI0
aI0
aI0
aI0
aI0
aI0
aI10
aI0
aI0
aI0
aI0
aI0
aI0
aI0
aI0
aI0
aI0
aI0
aI0
aI15
aI0
aI0
aI0
aI0
aI0
aI0
aI0
aI0
aI15
aI20
aI0
aI0
aI0
aI0
aI0
aI0
aI0
aI0
aI15
aI0
aI10
aI0
aI0
aI0
aI0
aI0
aI0
aI15
aI0
aI0
aI0
aI10
aI0
aI0
aI0
aI0
aI10
aI0
aI0
aI0
aI10
aI0
aI0
aI0
aI0
aI10
aI0
aI0
aI0
aI0
aI0
aI0
aI0
aI0
aI5
aI0
aI0
aI0
aI0
aI25
aI0
aI0
aI0
aI0
aI0
aI0
aI10
aI0
aI0
aI0
aI10
aI5
aI0
aI0
aI0
aI0
aI0
aI0
aI5
aI0
aI0
aI0
aI0
aI0
aI0
aI0
aI5
aI30
aI30
aI0
aI0
aI0
aI0
aI0
aI5
aI0
aI0
aI0
aI0
aI0
aI0
aI0
aI0
aI0
aI0
aI0
aI0
aI0
aI0
aI5
aI0
aI0
aI10
aI5
aI0
aI0
aI0
aI25
aI0
aI0
aI0
aI0
aI5
aI0
aI0
aI0
aI0
aI0
aI0
aI0
aI0
aI0
aI0
aI0
aI0
aI0
aI0
aI0
aI0
aI0
aI0
aI0
aI5
aI0
aI20
aI0
aI0
aI0
aI15
aI0
aI0
aI15
aI0
aI0
aI0
aI0
aI0
aI0
aI0
aI0
aI0
aI0
aI0
aI0
aI0
aI0
aI0
aI0
aI0
aI20
aI0
aI0
aI10
aI0
aI10
aI5
aI0
aI0
aI0
aI10
aI0
aI0
aI0
aI30
aI0
aI0
aI0
aI0
aI0
aI5
aI0
aI10
aI0
aI0
aI0
aI5
aI0
aI5
aI0
aI0
aI0
aI0
aI20
aI0
aI0
aI0
aI0
aI0
aI0
aI0
aI0
aI0
aI5
aI0
aI10
aI0
aI0
aI0
aI5
aI10
aI0
aI0
aI0
aI0
aI20
aI0
aI0
aI0
aI0
aI5
aI0
aI0
aI0
aI0
aI0
aI0
aI0
aI0
aI0
aI0
aI0
aI0
aI10
aI0
aI0
aI0
aI200
aI200
aI0
aI0
aI15
aI0
aI0
aI0
aI0
aI0
aI15
aI0
aI0
aI0
aI0
aI0
aI0
aI0
aI0
aI0
aI0
aI0
aI0
aI0
aI5
aI0
aI25
aI15
aI0
aI0
aI5
aI0
aI0
aI0
aI0
aI0
aI0
aI0
aI0
aI0
aI0
aI15
aI0
aI0
aI0
aI0
aI0
aI0
aI0
aI0
aI15
aI0
aI0
aI0
aI0
aI0
aI15
aI0
aI0
aI0
aI0
aI0
aI0
aI0
aI0
aI0
aI5
aI0
aI0
aI30
aI0
aI0
aI15
aI0
aI0
aI5
aI10
aI5
aI30
aI0
aI0
aI0
aI0
aI0
aI0
aI0
aI0
aI0
aI0
aI0
aI0
aI5
aI15
aI0
aI0
aI0
aI0
aI0
aI0
aI0
aI10
aI0
aI0
aI0
aI0
aI0
aI0
aI0
aI0
aI0
aI0
aI0
aI0
aI0
aI0
aI0
aI0
aI0
aI0
aI0
aI0
aI10
aI0
aI25
aI10
aI0
aI0
aI0
aI0
aI0
aI10
aI0
aI0
aI0
aI0
aI0
aI0
aI0
aI0
aI0
aI10
aI0
aI5
aI0
aI5
aI0
aI0
aI0
aI0
aI0
aI0
aI0
aI0
aI5
aI30
aI0
aI0
aI0
aI5
aI0
aI0
aI0
aI0
aI0
aI0
aI20
aI0
aI0
aI0
aI0
aI0
aI15
aI0
aI0
aI0
aI0
aI15
aI5
aI0
aI0
aI0
aI0
aI10
aI0
aI0
aI0
aI0
aI0
aI0
aI0
aI0
aI0
aI0
aI5
aI0
aI0
aI0
aI0
aI25
aI30
aI0
aI0
aI0
aI0
aI0
aI10
aI0
aI0
aI0
aI0
aI0
aI0
aI0
aI5
aI0
aI0
aI0
aI0
aI20
aI0
aI0
aI0
aI0
aI0
aI0
aI0
aI10
aI0
aI0
aI10
aI0
aI25
aI0
aI0
aI5
aI0
aI20
aI0
aI0
aI5
aI0
aI0
aI0
aI0
aI0
aI0
aI0
aI0
aI0
aI0
aI5
aI0
aI20
aI0
aI0
aI0
aI0
aI0
aI0
aI0
aI0
aI0
aI10
aI0
aI0
aI10
aI0
aI15
aI0
aI0
aI0
aI0
aI0
aI0
aI0
aI0
aI0
aI0
aI0
aI0
aI0
aI0
aI0
aI0
aI0
aI0
aI0
aI0
aI0
aI0
aI0
aI0
aI0
aI0
aI0
aI0
aI0
aI0
aI0
aI0
aI0
aI0
aI0
aI0
aI0
aI0
aI0
aI0
aI5
aI10
aI0
aI0
aI0
aI20
aI0
aI0
aI0
aI0
aI0
aI0
aI0
aI30
aI0
aI0
aI10
aI0
aI0
aI5
aI0
aI0
aI0
aI0
aI0
aI0
aI0
aI10
aI0
aI0
aI0
aI10
aI0
aI0
aI0
aI0
aI0
aI0
aI0
aI0
aI0
aI0
aI0
aI0
aI0
aI0
aI0
aI0
aI0
aI0
aI0
aI0
aI0
aI0
aI0
aI0
aI0
aI0
aI0
aI0
aI0
aI0
aI0
aI0
aI5
aI5
aI0
aI25
aI0
aI0
aI0
aI20
aI0
aI0
aI0
aI0
aI0
aI0
aI0
aI0
aI0
aI5
aI0
aI0
aI0
aI10
aI0
aI0
aI0
aI0
aI0
aI0
aI0
aI0
aI0
aI0
aI0
aI0
aI30
aI0
aI0
aI200
aI5
aI0
aI0
aI0
aI0
aI0
aI0
aI5
aI0
aI0
aI10
aI15
aI0
aI0
aI0
aI0
aI0
aI10
aI0
aI0
aI10
aI0
aI0
aI0
aI0
aI10
aI0
aI0
aI0
aI0
aI15
aI0
aI20
aI0
aI0
aI0
aI0
aI0
aI0
aI0
aI0
aI0
aI200
aI0
aI0
aI0
aI0
aI0
aI0
aI0
aI0
aI0
aI0
aI0
aI0
aI0
aI0
aI0
aI0
aI0
aI0
aI0
aI5
aI0
aI0
aI0
aI0
aI0
aI0
aI5
aI0
aI0
aI0
aI0
aI0
aI0
aI10
aI0
aI0
aI0
aI0
aI0
aI0
aI0
aI0
aI0
aI5
aI10
aI0
aI0
aI0
aI0
aI5
aI0
aI0
aI0
aI0
aI0
aI0
aI10
aI0
aI0
aI0
aI0
aI0
aI0
aI0
aI0
aI5
aI0
aI0
aI0
aI15
aI5
aI0
aI30
aI0
aI0
aI0
aI0
aI0
aI0
aI0
aI0
aI10
aI0
aI0
aI0
aI0
aI15
aI0
aI0
aI0
aI0
aI0
aI0
aI25
aI0
aI0
aI0
aI0
aI5
aI0
aI0
aI0
aI0
aI0
aI0
aI0
aI0
aI0
aI0
aI0
aI0
aI0
aI0
aI0
aI0
aI0
aI10
aI0
aI200
aI25
aI0
aI0
aI0
aI0
aI15
aI0
aI0
aI0
aI15
aI20
aI0
aI15
aI0
aI25
aI0
aI0
aI0
aI25
aI0
aI0
aI0
aI0
aI0
aI0
aI15
aI0
aI0
aI0
aI0
aI0
aI0
aI0
aI0
aI0
aI5
aI0
aI0
aI0
aI0
aI0
aI0
aI15
aI0
aI0
aI0
aI0
aI0
aI0
aI0
aI0
aI0
aI0
aI0
aI20
aI0
aI0
aI0
aI25
aI0
aI5
aI0
aI0
aI0
aI0
aI0
aI15
aI0
aI0
aI20
aI5
aI15
aI0
aI0
aI0
aI15
aI0
aI0
aI0
aI0
aI0
aI0
aI0
aI0
aI0
aI0
aI0
aI0
aI0
aI0
aI0
aI0
aI15
aI0
aI0
aI0
aI0
aI0
aI0
aI0
aI5
aI20
aI0
aI0
aI0
aI0
aI0
aI0
aI0
aI0
aI0
aI0
aI0
aI0
aI0
aI15
aI0
aI0
aI5
aI0
aI25
aI0
aI0
aI0
aI0
aI10
aI10
aI25
aI0
aI0
aI0
aI0
aI0
aI10
aI0
aI0
aI0
aI0
aI0
aI10
aI0
aI0
aI0
aI0
aI0
aI0
aI15
aI0
aI0
aI0
aI0
aI0
aI0
aI0
aI25
aI0
aI0
aI0
aI0
aI25
aI0
aI0
aI0
aI5
aI0
aI0
aI0
aI0
aI0
aI0
aI0
aI0
aI0
aI0
aI5
aI0
aI0
aI0
aI0
aI0
aI0
aI0
aI0
aI0
aI0
aI15
aI0
aI0
aI0
aI0
aI0
aI15
aI0
aI0
aI5
aI0
aI0
aI0
aI0
aI5
aI25
aI0
aI0
aI0
aI0
aI15
aI0
aI0
aI15
aI0
aI0
aI0
aI0
aI15
aI0
aI0
aI0
aI0
aI0
aI0
aI0
aI0
aI0
aI0
aI0
aI0
aI0
aI0
aI5
aI0
aI0
aI0
aI0
aI30
aI0
aI0
aI0
aI0
aI0
aI0
aI0
aI0
aI0
aI0
aI15
aI0
aI0
aI0
aI5
aI0
aI0
aI0
aI15
aI0
aI0
aI15
aI0
aI0
aI5
aI0
aI5
aI0
aI0
aI5
aI0
aI0
aI10
aI15
aI0
aI0
aI0
aI0
aI0
aI0
aI5
aI0
aI0
aI0
aI0
aI0
aI0
aI5
aI0
aI5
aI0
aI0
aI0
aI10
aI0
aI0
aI5
aI0
aI0
aI0
aI0
aI0
aI0
aI0
aI0
aI0
aI5
aI0
aI0
aI0
aI0
aI0
aI0
aI0
aI0
aI25
aI30
aI15
aI10
aI0
aI0
aI10
aI0
aI0
aI5
aI0
aI0
aI5
aI10
aI0
aI0
aI0
aI10
aI20
aI0
aI15
aI0
aI10
aI0
aI0
aI0
aI15
aI0
aI25
aI20
aI15
aI0
aI5
aI0
aI0
aI0
aI25
aI15
aI15
aI10
aI0
aI0
aI0
aI0
aI0
aI15
aI0
aI0
aI0
aI0
aI15
aI0
aI5
aI0
aI0
aI0
aI10
aI0
aI0
aI0
aI0
aI0
aI0
aI10
aI15
aI0
aI0
aI10
aI0
aI0
aI10
aI0
aI0
aI0
aI0
aI0
aI0
aI0
aI0
aI0
aI5
aI10
aI0
aI0
aI10
aI0
aI0
aI0
aI0
aI10
aI0
aI0
aI0
aI0
aI25
aI0
aI0
aI0
aI15
aI0
aI0
aI0
aI0
aI0
aI0
aI5
aI0
aI10
aI0
aI0
aI0
aI15
aI5
aI0
aI0
aI0
aI0
aI0
aI0
aI10
aI0
aI5
aI0
aI0
aI0
aI0
aI5
aI0
aI0
aI0
aI15
aI0
aI5
aI0
aI0
aI0
aI0
aI0
aI10
aI0
aI0
aI0
aI0
aI0
aI0
aI0
aI10
aI15
aI0
aI0
aI0
aI0
aI0
aI0
aI5
aI0
aI0
aI0
aI0
aI0
aI15
aI0
aI0
aI0
aI0
aI0
aI0
aI0
aI0
aI0
aI0
aI0
aI0
aI0
aI0
aI0
aI0
aI0
aI0
aI0
aI0
aI0
aI0
aI5
aI0
aI0
aI0
aI0
aI0
aI15
aI5
aI0
aI0
aI0
aI0
aI0
aI0
aI0
aI0
aI0
aI0
aI0
aI0
aI10
aI0
aI0
aI0
aI0
aI0
aI0
aI0
aI0
aI0
aI0
aI0
aI10
aI0
aI10
aI0
aI0
aI0
aI20
aI0
aI10
aI15
aI10
aI0
aI0
aI0
aI0
aI0
aI0
aI0
aI10
aI0
aI5
aI0
aI30
aI0
aI0
aI0
aI0
aI0
aI0
aI0
aI5
aI0
aI0
aI0
aI0
aI30
aI0
aI0
aI0
aI0
aI0
aI0
aI25
aI0
aI0
aI15
aI0
aI0
aI0
aI0
aI0
aI0
aI15
aI0
aI20
aI0
aI0
aI0
aI0
aI0
aI0
aI0
aI0
aI0
aI0
aI0
aI0
aI0
aI0
aI0
aI0
aI10
aI0
aI0
aI0
aI0
aI0
aI0
aI0
aI0
aI0
aI15
aI0
aI0
aI0
aI0
aI0
aI0
aI15
aI0
aI0
aI0
aI0
aI0
aI0
aI5
aI0
aI15
aI0
aI0
aI0
aI0
aI0
aI0
aI0
aI0
aI0
aI0
aI0
aI0
aI0
aI0
aI0
aI0
aI0
aI15
aI0
aI15
aI5
aI0
aI0
aI0
aI0
aI15
aI20
aI0
aI0
aI0
aI0
aI0
aI0
aI0
aI0
aI0
aI25
aI10
aI0
aI0
aI0
aI0
aI0
aI0
aI0
aI5
aI10
aI0
aI10
aI0
aI0
aI0
aI0
aI15
aI0
aI0
aI0
aI0
aI0
aI0
aI0
aI0
aI0
aI0
aI5
aI0
aI0
aI0
aI0
aI0
aI0
aI10
aI0
aI0
aI0
aI0
aI0
aI0
aI0
aI0
aI15
aI0
aI0
aI0
aI0
aI0
aI0
aI0
aI0
aI0
aI0
aI0
aI0
aI0
aI0
aI0
aI0
aI0
aI0
aI0
aI0
aI0
aI0
aI0
aI0
aI10
aI0
aI0
aI0
aI10
aI0
aI20
aI0
aI0
aI0
aI20
aI10
aI0
aI0
aI0
aI0
aI0
aI0
aI0
aI0
aI5
aI0
aI0
aI0
aI0
aI0
aI0
aI0
aI0
aI0
aI0
aI15
aI0
aI0
aI0
aI0
aI15
aI0
aI0
aI5
aI0
aI0
aI0
aI0
aI25
aI0
aI0
aI0
aI25
aI5
aI0
aI0
aI0
aI0
aI0
aI0
aI15
aI0
aI0
aI0
aI0
aI0
aI0
aI0
aI20
aI0
aI0
aI0
aI0
aI0
aI0
aI0
aI0
aI0
aI0
aI0
aI20
aI0
aI0
aI0
aI0
aI0
aI0
aI10
aI0
aI0
aI25
aI0
aI0
aI5
aI0
aI0
aI5
aI0
aI20
aI0
aI0
aI0
aI30
aI0
aI0
aI5
aI0
aI5
aI0
aI0
aI0
aI5
aI5
aI15
aI0
aI0
aI0
aI0
aI0
aI0
aI0
aI0
aI20
aI0
aI0
aI0
aI0
aI0
aI10
aI0
aI0
aI0
aI0
aI0
aI0
aI0
aI0
aI0
aI0
aI0
aI0
aI0
aI0
aI0
aI0
aI0
aI0
aI0
aI10
aI0
aI0
aI0
aI5
aI200
aI10
aI0
aI0
aI0
aI0
aI10
aI0
aI0
aI0
aI0
aI0
aI0
aI0
aI0
aI0
aI0
aI0
aI0
aI10
aI0
aI0
aI0
aI0
aI5
aI0
aI0
aI0
aI0
aI0
aI0
aI0
aI10
aI0
aI0
aI5
aI0
aI0
aI0
aI10
aI0
aI0
aI0
aI0
aI0
aI0
aI0
aI0
aI5
aI15
aI0
aI0
aI0
aI0
aI0
aI0
aI0
aI0
aI10
aI0
aI0
aI10
aI0
aI0
aI0
aI0
aI15
aI0
aI0
aI0
aI0
aI0
aI0
aI0
aI0
aI0
aI0
aI0
aI0
aI0
aI5
aI10
aI0
aI10
aI0
aI0
aI0
aI0
aI0
aI0
aI0
aI0
aI0
aI0
aI0
aI0
aI0
aI0
aI0
aI0
aI0
aI0
aI0
aI0
aI0
aI0
aI5
aI10
aI0
aI0
aI0
aI0
aI0
aI0
aI0
aI5
aI0
aI15
aI5
aI0
aI0
aI0
aI0
aI0
aI0
aI0
aI0
aI0
aI0
aI5
aI0
aI10
aI0
aI0
aI0
aI15
aI0
aI0
aI0
aI0
aI15
aI20
aI0
aI0
aI0
aI0
aI0
aI0
aI0
aI0
aI15
aI0
aI0
aI5
aI10
aI0
aI0
aI5
aI0
aI0
aI0
aI0
aI0
aI0
aI0
aI0
aI0
aI0
aI0
aI0
aI0
aI0
aI0
aI0
aI0
aI0
aI0
aI0
aI5
aI0
aI0
aI0
aI0
aI0
aI0
aI0
aI0
aI5
aI0
aI0
aI0
aI0
aI0
aI0
aI0
aI0
aI0
aI0
aI0
aI5
aI0
aI10
aI0
aI0
aI0
aI0
aI5
aI0
aI0
aI15
aI0
aI15
aI0
aI5
aI5
aI10
aI0
aI0
aI0
aI0
aI0
aI10
aI0
aI0
aI0
aI0
aI0
aI0
aI0
aI0
aI0
aI0
aI0
aI20
aI0
aI0
aI0
aI0
aI0
aI0
aI0
aI0
aI0
aI0
aI0
aI0
aI0
aI0
aI0
aI0
aI5
aI0
aI0
aI0
aI0
aI0
aI0
aI0
aI0
aI10
aI15
aI0
aI0
aI10
aI0
aI0
aI0
aI0
aI0
aI15
aI0
aI0
aI0
aI0
aI0
aI10
aI0
aI20
aI0
aI0
aI0
aI0
aI0
aI0
aI0
aI0
aI0
aI0
aI0
aI0
aI0
aI10
aI0
aI0
aI0
aI0
aI0
aI0
aI0
aI0
aI5
aI0
aI0
aI15
aI10
aI0
aI0
aI0
aI0
aI0
aI0
aI5
aI5
aI0
aI0
aI25
aI30
aI0
aI0
aI0
aI0
aI25
aI20
aI0
aI0
aI0
aI0
aI10
aI0
aI0
aI0
aI0
aI0
aI0
aI0
aI0
aI0
aI0
aI15
aI0
aI0
aI0
aI0
aI0
aI10
aI0
aI0
aI0
aI0
aI0
aI0
aI0
aI15
aI20
aI0
aI0
aI0
aI0
aI10
aI10
aI0
aI0
aI0
aI0
aI0
aI0
aI0
aI15
aI0
aI0
aI0
aI0
aI0
aI0
aI0
aI0
aI10
aI0
aI0
aI0
aI0
aI0
aI0
aI0
aI0
aI0
aI0
aI0
aI0
aI0
aI0
aI0
aI0
aI0
aI10
aI0
aI0
aI0
aI0
aI0
aI0
aI10
aI0
aI0
aI5
aI10
aI0
aI0
aI0
aI0
aI25
aI0
aI0
aI0
aI0
aI0
aI0
aI5
aI0
aI0
aI0
aI0
aI0
aI0
aI0
aI0
aI0
aI0
aI10
aI0
aI0
aI0
aI10
aI0
aI0
aI0
aI0
aI0
aI0
aI0
aI0
aI10
aI0
aI0
aI0
aI10
aI0
aI0
aI0
aI0
aI0
aI0
aI0
aI0
aI0
aI0
aI0
aI0
aI0
aI0
aI0
aI0
aI0
aI0
aI10
aI0
aI0
aI0
aI0
aI0
aI0
aI0
aI5
aI0
aI0
aI0
aI0
aI0
aI0
aI0
aI0
aI0
aI0
aI0
aI0
aI5
aI0
aI15
aI0
aI15
aI0
aI0
aI0
aI0
aI0
aI0
aI0
aI25
aI0
aI0
aI0
aI0
aI5
aI0
aI0
aI0
aI25
aI0
aI0
aI0
aI0
aI0
aI0
aI0
aI0
aI0
aI0
aI30
aI0
aI5
aI0
aI10
aI0
aI0
aI0
aI0
aI0
aI0
aI0
aI10
aI0
aI0
aI0
aI0
aI0
aI0
aI0
aI0
aI0
aI0
aI0
aI0
aI0
aI10
aI0
aI0
aI0
aI0
aI0
aI0
aI0
aI0
aI0
aI0
aI15
aI0
aI10
aI0
aI0
aI0
aI0
aI0
aI0
aI0
aI25
aI0
aI0
aI0
aI0
aI0
aI20
aI0
aI0
aI5
aI200
aI0
aI0
aI15
aI0
aI0
aI0
aI0
aI0
aI0
aI0
aI0
aI0
aI10
aI0
aI0
aI0
aI0
aI0
aI0
aI0
aI0
aI0
aI20
aI0
aI0
aI0
aI0
aI0
aI15
aI0
aI15
aI0
aI0
aI10
aI10
aI0
aI0
aI0
aI0
aI0
aI10
aI0
aI0
aI0
aI0
aI0
aI0
aI0
aI0
aI0
aI0
aI0
aI0
aI0
aI0
aI0
aI0
aI0
aI25
aI0
aI0
aI0
aI5
aI0
aI25
aI0
aI0
aI0
aI0
aI0
aI0
aI0
aI15
aI0
aI0
aI0
aI0
aI0
aI0
aI0
aI5
aI0
aI0
aI0
aI0
aI0
aI0
aI0
aI10
aI0
aI15
aI10
aI0
aI20
aI0
aI10
aI0
aI0
aI15
aI0
aI0
aI0
aI10
aI0
aI0
aI0
aI0
aI0
aI0
aI0
aI0
aI20
aI0
aI0
aI0
aI0
aI0
aI0
aI0
aI0
aI25
aI0
aI0
aI0
aI0
aI0
aI0
aI0
aI0
aI0
aI0
aI15
aI0
aI0
aI0
aI0
aI0
aI5
aI0
aI0
aI0
aI0
aI0
aI0
aI0
aI0
aI10
aI0
aI0
aI5
aI10
aI0
aI0
aI0
aI0
aI0
aI0
aI0
aI0
aI0
aI0
aI0
aI0
aI0
aI0
aI0
aI0
aI0
aI0
aI0
aI0
aI0
aI0
aI0
aI0
aI0
aI0
aI0
aI0
aI0
aI10
aI5
aI0
aI10
aI0
aI0
aI0
aI0
aI0
aI0
aI0
aI5
aI0
aI0
aI5
aI0
aI0
aI0
aI0
aI0
aI10
aI0
aI5
aI0
aI0
aI0
aI10
aI0
aI0
aI0
aI0
aI5
aI0
aI10
aI0
aI10
aI10
aI0
aI0
aI0
aI0
aI0
aI0
aI0
aI0
aI20
aI0
aI0
aI0
aI0
aI0
aI0
aI0
aI0
aI0
aI0
aI0
aI0
aI0
aI0
aI10
aI0
aI0
aI0
aI0
aI0
aI0
aI0
aI10
aI0
aI0
aI0
aI0
aI0
aI0
aI0
aI0
aI20
aI0
aI0
aI0
aI0
aI0
aI0
aI5
aI0
aI0
aI0
aI0
aI0
aI0
aI0
aI0
aI0
aI0
aI0
aI0
aI0
aI0
aI0
aI0
aI0
aI0
aI20
aI0
aI0
aI0
aI0
aI0
aI0
aI0
aI0
aI0
aI0
aI0
aI0
aI0
aI0
aI0
aI0
aI0
aI0
aI25
aI0
aI0
aI5
aI10
aI0
aI0
aI0
aI0
aI0
aI0
aI0
aI5
aI0
aI0
aI0
aI0
aI200
aI0
aI0
aI0
aI25
aI15
aI0
aI0
aI0
aI0
aI0
aI0
aI0
aI15
aI20
aI0
aI0
aI0
aI0
aI0
aI0
aI0
aI30
aI5
aI0
aI10
aI0
aI0
aI0
aI0
aI10
aI20
aI0
aI0
aI0
aI0
aI0
aI0
aI0
aI0
aI0
aI0
aI0
aI0
aI0
aI0
aI10
aI0
aI0
aI0
aI0
aI10
aI0
aI0
aI0
aI0
aI0
aI0
aI0
aI0
aI0
aI0
aI10
aI0
aI0
aI20
aI15
aI0
aI0
aI0
aI0
aI0
aI0
aI0
aI5
aI0
aI15
aI0
aI0
aI0
aI0
aI0
aI0
aI15
aI0
aI0
aI5
aI10
aI0
aI0
aI0
aI0
aI20
aI20
aI0
aI0
aI0
aI0
aI5
aI0
aI0
aI0
aI0
aI0
aI25
aI0
aI0
aI0
aI0
aI0
aI0
aI0
aI0
aI0
aI0
aI0
aI0
aI10
aI0
aI0
aI0
aI10
aI0
aI0
aI0
aI0
aI0
aI0
aI0
aI0
aI0
aI0
aI0
aI0
aI0
aI10
aI0
aI0
aI5
aI0
aI5
aI0
aI20
aI0
aI0
aI0
aI0
aI0
aI0
aI0
aI0
aI0
aI0
aI0
aI0
aI0
aI5
aI0
aI0
aI0
aI0
aI0
aI0
aI0
aI0
aI5
aI15
aI0
aI0
aI0
aI0
aI5
aI10
aI0
aI0
aI0
aI20
aI0
aI0
aI0
aI0
aI0
aI0
aI0
aI10
aI0
aI0
aI0
aI0
aI5
aI15
aI0
aI0
aI0
aI0
aI15
aI0
aI0
aI5
aI15
aI0
aI0
aI0
aI0
aI0
aI0
aI0
aI0
aI0
aI0
aI0
aI0
aI0
aI0
aI0
aI10
aI25
aI0
aI0
aI0
aI0
aI0
aI0
aI0
aI0
aI0
aI0
aI0
aI0
aI0
aI0
aI0
aI0
aI0
aI0
aI0
aI0
aI0
aI0
aI10
aI0
aI5
aI0
aI0
aI0
aI15
aI0
aI0
aI0
aI0
aI0
aI0
aI0
aI0
aI0
aI0
aI0
aI0
aI0
aI0
aI0
aI0
aI0
aI0
aI5
aI0
aI0
aI0
aI0
aI0
aI0
aI0
aI0
aI0
aI0
aI0
aI0
aI0
aI0
aI0
aI0
aI0
aI0
aI0
aI0
aI0
aI10
aI5
aI0
aI0
aI0
aI0
aI0
aI0
aI0
aI0
aI0
aI0
aI0
aI0
aI0
aI0
aI0
aI10
aI0
aI0
aI0
aI0
aI0
aI0
aI0
aI0
aI0
aI15
aI0
aI0
aI0
aI0
aI0
aI0
aI10
aI0
aI0
aI0
aI0
aI0
aI0
aI15
aI30
aI0
aI0
aI0
aI0
aI200
aI0
aI0
aI5
aI5
aI0
aI0
aI0
aI0
aI0
aI5
aI0
aI0
aI0
aI5
aI0
aI0
aI0
aI0
aI0
aI0
aI0
aI0
aI5
aI0
aI0
aI10
aI0
aI0
aI0
aI0
aI0
aI0
aI5
aI0
aI0
aI5
aI0
aI0
aI0
aI0
aI0
aI0
aI0
aI20
aI0
aI0
aI0
aI0
aI0
aI10
aI0
aI0
aI0
aI0
aI0
aI0
aI0
aI0
aI0
aI0
aI0
aI0
aI0
aI0
aI0
aI0
aI0
aI0
aI20
aI0
aI20
aI25
aI0
aI0
aI5
aI10
aI20
aI0
aI0
aI10
aI0
aI0
aI0
aI0
aI10
aI0
aI0
aI0
aI0
aI0
aI0
aI0
aI0
aI0
aI0
aI0
aI0
aI0
aI0
aI0
aI25
aI0
aI0
aI0
aI0
aI15
aI0
aI0
aI0
aI0
aI0
aI10
aI0
aI0
aI0
aI5
aI0
aI0
aI5
aI0
aI0
aI0
aI0
aI0
aI0
aI20
aI0
aI15
aI0
aI0
aI0
aI0
aI0
aI0
aI5
aI0
aI0
aI0
aI0
aI0
aI0
aI0
aI10
aI0
aI0
aI0
aI15
aI0
aI20
aI0
aI0
aI0
aI0
aI0
aI0
aI5
aI0
aI0
aI0
aI0
aI0
aI0
aI0
aI0
aI0
aI0
aI0
aI5
aI0
aI0
aI15
aI0
aI0
aI0
aI15
aI10
aI0
aI0
aI0
aI0
aI0
aI0
aI10
aI0
aI0
aI0
aI20
aI0
aI20
aI0
aI15
aI0
aI5
aI0
aI0
aI0
aI15
aI0
aI0
aI0
aI5
aI0
aI5
aI0
aI0
aI0
aI0
aI0
aI0
aI0
aI15
aI5
aI25
aI0
aI0
aI20
aI0
aI0
aI0
aI0
aI0
aI0
aI5
aI0
aI0
aI0
aI0
aI0
aI0
aI0
aI0
aI0
aI0
aI15
aI0
aI0
aI0
aI0
aI0
aI0
aI0
aI15
aI0
aI0
aI0
aI0
aI0
aI0
aI0
aI15
aI10
aI0
aI0
aI5
aI20
aI0
aI0
aI0
aI10
aI0
aI15
aI0
aI0
aI0
aI0
aI0
aI0
aI0
aI0
aI0
aI0
aI0
aI0
aI0
aI0
aI0
aI0
aI0
aI0
aI0
aI0
aI0
aI0
aI5
aI0
aI0
aI0
aI0
aI5
aI0
aI0
aI0
aI0
aI0
aI30
aI0
aI0
aI0
aI0
aI0
aI0
aI0
aI0
aI0
aI0
aI0
aI0
aI0
aI0
aI0
aI20
aI0
aI0
aI0
aI0
aI10
aI0
aI0
aI5
aI0
aI0
aI0
aI0
aI0
aI0
aI0
aI0
aI0
aI0
aI0
aI0
aI0
aI0
aI0
aI0
aI0
aI0
aI0
aI0
aI0
aI0
aI0
aI0
aI0
aI0
aI0
aI0
aI10
aI0
aI0
aI0
aI0
aI0
aI0
aI0
aI10
aI0
aI0
aI0
aI0
aI0
aI0
aI0
aI0
aI0
aI0
aI15
aI0
aI0
aI0
aI0
aI5
aI10
aI0
aI10
aI0
aI0
aI0
aI0
aI0
aI0
aI0
aI0
aI0
aI0
aI0
aI0
aI0
aI0
aI0
aI0
aI0
aI0
aI0
aI0
aI0
aI0
aI0
aI0
aI0
aI0
aI0
aI5
aI0
aI0
aI5
aI5
aI0
aI0
aI0
aI10
aI0
aI0
aI5
aI0
aI0
aI0
aI0
aI0
aI0
aI0
aI0
aI10
aI0
aI0
aI0
aI0
aI0
aI5
aI10
aI0
aI0
aI20
aI0
aI0
aI0
aI0
aI0
aI0
aI5
aI0
aI0
aI0
aI0
aI0
aI0
aI15
aI0
aI15
aI10
aI0
aI0
aI0
aI0
aI0
aI0
aI0
aI0
aI5
aI0
aI0
aI0
aI0
aI5
aI0
aI0
aI0
aI10
aI0
aI0
aI0
aI0
aI0
aI15
aI0
aI15
aI0
aI0
aI0
aI0
aI0
aI0
aI10
aI0
aI0
aI0
aI0
aI0
aI0
aI5
aI0
aI0
aI0
aI0
aI0
aI0
aI0
aI20
aI0
aI5
aI0
aI0
aI0
aI0
aI0
aI0
aI0
aI0
aI0
aI0
aI0
aI0
aI0
aI0
aI0
aI0
aI0
aI15
aI0
aI0
aI0
aI0
aI0
aI0
aI0
aI0
aI0
aI0
aI0
aI0
aI0
aI0
aI0
aI0
aI0
aI0
aI0
aI0
aI0
aI0
aI0
aI0
aI5
aI0
aI0
aI0
aI0
aI0
aI0
aI0
aI0
aI30
aI0
aI5
aI0
aI0
aI0
aI0
aI15
aI0
aI0
aI0
aI0
aI0
aI0
aI0
aI0
aI0
aI0
aI10
aI0
aI0
aI0
aI0
aI0
aI0
aI0
aI0
aI0
aI0
aI0
aI0
aI0
aI0
aI0
aI0
aI0
aI0
aI0
aI0
aI10
aI0
aI0
aI0
aI0
aI0
aI0
aI5
aI15
aI0
aI0
aI0
aI0
aI0
aI0
aI0
aI0
aI0
aI0
aI0
aI0
aI0
aI0
aI0
aI0
aI0
aI0
aI0
aI0
aI0
aI0
aI0
aI0
aI0
aI5
aI5
aI10
aI0
aI0
aI0
aI0
aI0
aI0
aI0
aI20
aI0
aI5
aI0
aI0
aI0
aI0
aI0
aI0
aI0
aI0
aI0
aI0
aI0
aI0
aI0
aI0
aI5
aI0
aI0
aI20
aI0
aI5
aI10
aI0
aI0
aI0
aI0
aI0
aI5
aI0
aI0
aI0
aI15
aI0
aI0
aI0
aI0
aI0
aI0
aI0
aI0
aI15
aI0
aI5
aI0
aI0
aI0
aI0
aI0
aI0
aI0
aI25
aI0
aI0
aI15
aI0
aI0
aI0
aI0
aI5
aI0
aI0
aI0
aI15
aI0
aI0
aI0
aI0
aI0
aI10
aI0
aI0
aI0
aI0
aI0
aI0
aI0
aI0
aI10
aI25
aI0
aI0
aI10
aI0
aI0
aI20
aI10
aI10
aI0
aI0
aI0
aI0
aI0
aI0
aI0
aI10
aI0
aI0
aI0
aI0
aI0
aI0
aI0
aI0
aI0
aI30
aI0
aI0
aI0
aI0
aI0
aI0
aI0
aI15
aI0
aI0
aI0
aI0
aI0
aI0
aI0
aI0
aI0
aI0
aI0
aI0
aI0
aI0
aI15
aI0
aI0
aI20
aI0
aI15
aI0
aI0
aI0
aI0
aI0
aI0
aI0
aI5
aI0
aI10
aI0
aI0
aI0
aI0
aI0
aI0
aI0
aI0
aI0
aI0
aI0
aI0
aI15
aI15
aI0
aI0
aI0
aI0
aI0
aI0
aI0
aI0
aI0
aI0
aI0
aI0
aI15
aI0
aI0
aI0
aI0
aI0
aI5
aI0
aI0
aI0
aI0
aI10
aI0
aI0
aI10
aI0
aI0
aI10
aI0
aI0
aI0
aI0
aI0
aI0
aI0
aI0
aI0
aI0
aI0
aI5
aI0
aI0
aI0
aI0
aI0
aI0
aI0
aI0
aI0
aI0
aI0
aI10
aI0
aI0
aI0
aI0
aI0
aI0
aI0
aI5
aI0
aI0
aI0
aI10
aI0
aI0
aI0
aI0
aI0
aI0
aI15
aI0
aI0
aI0
aI0
aI0
aI0
aI0
aI0
aI0
aI0
aI0
aI0
aI0
aI0
aI0
aI0
aI0
aI0
aI0
aI0
aI0
aI0
aI5
aI0
aI0
aI0
aI15
aI0
aI0
aI10
aI0
aI0
aI0
aI0
aI0
aI0
aI0
aI0
aI0
aI0
aI5
aI0
aI0
aI0
aI0
aI0
aI0
aI0
aI0
aI0
aI5
aI0
aI0
aI25
aI0
aI0
aI0
aI0
aI0
aI0
aI0
aI0
aI10
aI0
aI0
aI0
aI0
aI0
aI0
aI0
aI20
aI10
aI0
aI0
aI0
aI0
aI0
aI5
aI0
aI0
aI0
aI0
aI0
aI0
aI0
aI0
aI0
aI0
aI0
aI0
aI0
aI0
aI5
aI0
aI0
aI0
aI0
aI15
aI0
aI0
aI0
aI0
aI0
aI0
aI0
aI0
aI0
aI0
aI0
aI0
aI0
aI5
aI0
aI0
aI0
aI15
aI0
aI0
aI0
aI0
aI0
aI0
aI0
aI0
aI0
aI0
aI15
aI5
aI0
aI0
aI10
aI0
aI0
aI0
aI0
aI0
aI0
aI0
aI0
aI0
aI0
aI0
aI0
aI10
aI0
aI0
aI0
aI0
aI0
aI10
aI0
aI0
aI15
aI0
aI0
aI0
aI0
aI0
aI5
aI0
aI0
aI0
aI0
aI10
aI20
aI30
aI200
aI0
aI0
aI15
aI0
aI0
aI15
aI0
aI0
aI0
aI0
aI0
aI0
aI0
aI0
aI0
aI5
aI0
aI0
aI0
aI10
aI0
aI0
aI0
aI0
aI0
aI0
aI0
aI0
aI10
aI0
aI0
aI0
aI10
aI0
aI0
aI0
aI0
aI0
aI0
aI0
aI0
aI0
aI0
aI0
aI0
aI0
aI0
aI0
aI0
aI0
aI0
aI15
aI0
aI0
aI0
aI10
aI0
aI0
aI0
aI0
aI0
aI0
aI0
aI0
aI0
aI0
aI0
aI0
aI0
aI20
aI0
aI0
aI0
aI0
aI0
aI0
aI5
aI0
aI0
aI0
aI0
aI0
aI0
aI0
aI5
aI15
aI0
aI10
aI0
aI0
aI10
aI0
aI0
aI0
aI0
aI0
aI0
aI0
aI0
aI0
aI0
aI0
aI0
aI0
aI0
aI0
aI0
aI0
aI0
aI0
aI5
aI0
aI0
aI10
aI0
aI0
aI0
aI0
aI0
aI0
aI0
aI5
aI0
aI0
aI5
aI0
aI0
aI15
aI0
aI0
aI0
aI0
aI0
aI0
aI0
aI0
aI0
aI0
aI0
aI0
aI0
aI0
aI0
aI0
aI0
aI0
aI0
aI0
aI0
aI0
aI0
aI5
aI0
aI0
aI0
aI0
aI0
aI10
aI0
aI0
aI0
aI0
aI0
aI0
aI0
aI0
aI0
aI0
aI0
aI0
aI5
aI0
aI0
aI0
aI0
aI0
aI0
aI0
aI0
aI0
aI0
aI0
aI0
aI0
aI0
aI0
aI0
aI15
aI0
aI0
aI0
aI0
aI0
aI0
aI0
aI0
aI0
aI20
aI0
aI0
aI0
aI0
aI0
aI0
aI0
aI0
aI0
aI0
aI0
aI0
aI0
aI0
aI0
aI0
aI0
aI0
aI0
aI0
aI5
aI0
aI0
aI0
aI0
aI0
aI5
aI0
aI0
aI0
aI5
aI0
aI0
aI0
aI0
aI10
aI5
aI0
aI0
aI0
aI0
aI0
aI15
aI0
aI0
aI0
aI0
aI5
aI0
aI0
aI0
aI0
aI0
aI0
aI0
aI5
aI0
aI0
aI0
aI0
aI5
aI5
aI0
aI15
aI0
aI200
aI0
aI0
aI0
aI0
aI0
aI0
aI0
aI0
aI0
aI0
aI0
aI0
aI0
aI0
aI0
aI0
aI0
aI0
aI0
aI0
aI0
aI0
aI0
aI0
aI0
aI0
aI0
aI0
aI0
aI0
aI0
aI10
aI0
aI0
aI0
aI0
aI0
aI0
aI0
aI0
aI0
aI0
aI0
aI5
aI0
aI0
aI0
aI0
aI0
aI0
aI0
aI0
aI0
aI0
aI0
aI0
aI0
aI0
aI0
aI0
aI0
aI0
aI0
aI0
aI0
aI0
aI0
aI0
aI0
aI20
aI0
aI0
aI0
aI0
aI0
aI0
aI0
aI0
aI0
aI0
aI10
aI0
aI0
aI0
aI0
aI0
aI0
aI0
aI15
aI0
aI0
aI0
aI5
aI0
aI0
aI0
aI0
aI0
aI30
aI0
aI0
aI0
aI0
aI0
aI0
aI0
aI0
aI10
aI0
aI0
aI0
aI0
aI15
aI25
aI0
aI0
aI0
aI0
aI0
aI0
aI0
aI0
aI0
aI0
aI0
aI0
aI0
aI20
aI0
aI5
aI0
aI0
aI10
aI0
aI0
aI0
aI0
aI0
aI0
aI20
aI30
aI0
aI0
aI0
aI0
aI0
aI10
aI0
aI0
aI0
aI0
aI0
aI10
aI0
aI0
aI0
aI0
aI0
aI0
aI15
aI0
aI0
aI0
aI0
aI0
aI0
aI0
aI0
aI10
aI0
aI0
aI0
aI0
aI0
aI5
aI0
aI15
aI0
aI0
aI0
aI0
aI0
aI0
aI0
aI0
aI0
aI0
aI0
aI0
aI0
aI0
aI0
aI0
aI0
aI10
aI0
aI0
aI0
aI0
aI0
aI0
aI0
aI0
aI0
aI20
aI0
aI0
aI0
aI5
aI0
aI0
aI0
aI0
aI15
aI5
aI15
aI0
aI0
aI0
aI0
aI0
aI0
aI0
aI0
aI0
aI0
aI0
aI0
aI0
aI0
aI0
aI0
aI0
aI0
aI0
aI0
aI0
aI0
aI0
aI0
aI0
aI15
aI25
aI15
aI0
aI0
aI0
aI0
aI0
aI0
aI0
aI10
aI0
aI0
aI0
aI5
aI0
aI0
aI0
aI0
aI0
aI0
aI0
aI15
aI0
aI0
aI5
aI0
aI0
aI15
aI10
aI0
aI0
aI0
aI0
aI0
aI0
aI0
aI0
aI0
aI0
aI0
aI0
aI0
aI20
aI30
aI15
aI0
aI0
aI0
aI0
aI0
aI0
aI0
aI0
aI0
aI0
aI0
aI0
aI0
aI0
aI5
aI0
aI15
aI0
aI0
aI0
aI0
aI0
aI0
aI0
aI10
aI0
aI0
aI0
aI0
aI0
aI0
aI0
aI0
aI0
aI0
aI0
aI0
aI0
aI0
aI0
aI0
aI0
aI0
aI0
aI0
aI5
aI0
aI0
aI0
aI0
aI0
aI0
aI0
aI0
aI0
aI0
aI25
aI0
aI0
aI0
aI0
aI0
aI0
aI0
aI0
aI15
aI0
aI0
aI0
aI5
aI0
aI0
aI0
aI0
aI0
aI0
aI0
aI0
aI0
aI0
aI0
aI0
aI0
aI0
aI0
aI0
aI0
aI0
aI0
aI0
aI0
aI0
aI0
aI0
aI5
aI10
aI0
aI0
aI0
aI0
aI0
aI0
aI0
aI0
aI0
aI0
aI0
aI0
aI0
aI0
aI0
aI10
aI0
aI0
aI0
aI0
aI0
aI0
aI0
aI0
aI0
aI0
aI0
aI0
aI0
aI0
aI0
aI0
aI0
aI0
aI0
aI0
aI0
aI0
aI0
aI0
aI0
aI0
aI0
aI0
aI0
aI0
aI0
aI0
aI0
aI0
aI0
aI0
aI0
aI0
aI0
aI0
aI0
aI5
aI0
aI0
aI0
aI0
aI0
aI0
aI0
aI0
aI0
aI0
aI0
aI0
aI0
aI0
aI0
aI0
aI5
aI0
aI5
aI0
aI0
aI0
aI5
aI0
aI0
aI0
aI0
aI0
aI0
aI0
aI0
aI0
aI0
aI0
aI0
aI0
aI0
aI0
aI0
aI0
aI0
aI0
aI0
aI0
aI0
aI0
aI20
aI0
aI0
aI0
aI10
aI15
aI0
aI0
aI15
aI0
aI0
aI5
aI0
aI0
aI0
aI0
aI0
aI25
aI0
aI25
aI0
aI30
aI0
aI0
aI0
aI0
aI0
aI0
aI0
aI0
aI0
aI0
aI0
aI0
aI15
aI0
aI0
aI5
aI0
aI0
aI0
aI0
aI0
aI0
aI0
aI0
aI0
aI0
aI0
aI0
aI0
aI0
aI0
aI0
aI0
aI0
aI0
aI5
aI0
aI0
aI0
aI20
aI0
aI15
aI15
aI0
aI0
aI0
aI0
aI0
aI0
aI5
aI0
aI0
aI0
aI0
aI5
aI0
aI15
aI0
aI20
aI0
aI0
aI25
aI0
aI0
aI0
aI0
aI0
aI0
aI30
aI20
aI0
aI0
aI5
aI5
aI0
aI0
aI0
aI20
aI0
aI25
aI0
aI0
aI25
aI0
aI0
aI0
aI0
aI0
aI0
aI0
aI0
aI0
aI0
aI0
aI0
aI0
aI0
aI0
aI0
aI0
aI0
aI0
aI0
aI0
aI0
aI10
aI10
aI0
aI25
aI0
aI0
aI0
aI0
aI0
aI0
aI0
aI0
aI0
aI0
aI0
aI0
aI0
aI0
aI0
aI0
aI0
aI5
aI0
aI0
aI0
aI0
aI0
aI0
aI0
aI0
aI0
aI0
aI0
aI0
aI0
aI0
aI0
aI0
aI0
aI0
aI0
aI0
aI0
aI0
aI0
aI0
aI0
aI10
aI0
aI10
aI0
aI0
aI0
aI0
aI0
aI0
aI0
aI0
aI0
aI0
aI0
aI0
aI15
aI0
aI15
aI0
aI0
aI5
aI0
aI0
aI0
aI5
aI0
aI10
aI10
aI0
aI20
aI0
aI0
aI0
aI0
aI0
aI0
aI0
aI0
aI0
aI0
aI0
aI30
aI0
aI25
aI0
aI0
aI0
aI0
aI0
aI0
aI0
aI0
aI0
aI20
aI0
aI0
aI0
aI0
aI25
aI0
aI0
aI0
aI0
aI0
aI0
aI0
aI15
aI0
aI0
aI0
aI25
aI0
aI0
aI0
aI30
aI0
aI0
aI0
aI0
aI0
aI20
aI25
aI15
aI0
aI0
aI10
aI0
aI0
aI15
aI0
aI0
aI20
aI0
aI0
aI0
aI0
aI0
aI0
aI0
aI0
aI0
aI0
aI0
aI0
aI0
aI0
aI0
aI15
aI0
aI0
aI30
aI0
aI200
aI10
aI0
aI0
aI0
aI10
aI10
aI0
aI0
aI0
aI0
aI0
aI0
aI0
aI0
aI0
aI0
aI0
aI0
aI0
aI0
aI0
aI0
aI0
aI0
aI0
aI20
aI0
aI0
aI0
aI5
aI0
aI0
aI0
aI0
aI0
aI5
aI0
aI0
aI0
aI0
aI0
aI0
aI0
aI10
aI25
aI0
aI0
aI0
aI15
aI0
aI0
aI0
aI0
aI0
aI0
aI0
aI0
aI0
aI0
aI30
aI0
aI0
aI30
aI0
aI25
aI0
aI0
aI0
aI0
aI0
aI0
aI0
aI0
aI0
aI0
aI0
aI0
aI10
aI0
aI0
aI0
aI5
aI20
aI0
aI0
aI0
aI5
aI0
aI0
aI0
aI15
aI0
aI0
aI5
aI20
aI0
aI20
aI10
aI10
aI0
aI0
aI0
aI0
aI0
aI0
aI0
aI10
aI0
aI0
aI0
aI0
aI0
aI0
aI0
aI0
aI0
aI0
aI0
aI0
aI0
aI0
aI0
aI0
aI10
aI0
aI20
aI0
aI15
aI0
aI0
aI0
aI0
aI0
aI0
aI10
aI0
aI0
aI10
aI20
aI0
aI0
aI25
aI0
aI0
aI0
aI0
aI0
aI0
aI0
aI0
aI0
aI0
aI0
aI0
aI0
aI0
aI0
aI25
aI0
aI10
aI0
aI0
aI0
aI0
aI15
aI0
aI0
aI0
aI0
aI20
aI0
aI0
aI25
aI0
aI0
aI0
aI0
aI0
aI0
aI0
aI0
aI0
aI0
aI0
aI30
aI0
aI0
aI0
aI0
aI0
aI0
aI0
aI0
aI0
aI25
aI0
aI25
aI0
aI0
aI5
aI0
aI0
aI0
aI0
aI0
aI0
aI0
aI5
aI10
aI0
aI0
aI0
aI0
aI10
aI0
aI0
aI0
aI0
aI0
aI0
aI0
aI0
aI0
aI0
aI30
aI0
aI0
aI0
aI0
aI0
aI0
aI0
aI10
aI0
aI5
aI0
aI20
aI200
aI15
aI20
aI5
aI10
aI0
aI25
aI30
aI0
aI0
aI0
aI0
aI0
aI0
aI0
aI0
aI0
aI0
aI0
aI0
aI5
aI0
aI0
aI0
aI0
aI0
aI0
aI0
aI0
aI0
aI0
aI0
aI0
aI0
aI0
aI0
aI15
aI0
aI0
aI0
aI0
aI20
aI25
aI0
aI0
aI0
aI0
aI0
aI0
aI0
aI0
aI10
aI0
aI0
aI5
aI0
aI0
aI0
aI0
aI0
aI0
aI0
aI5
aI0
aI10
aI0
aI0
aI0
aI0
aI0
aI0
aI0
aI0
aI0
aI0
aI0
aI5
aI0
aI0
aI0
aI0
aI0
aI0
aI0
aI0
aI0
aI0
aI0
aI0
aI0
aI0
aI0
aI0
aI0
aI0
aI0
aI0
aI0
aI0
aI0
aI0
aI0
aI0
aI0
aI0
aI0
aI30
aI0
aI0
aI10
aI0
aI0
aI0
aI0
aI0
aI0
aI0
aI200
aI0
aI20
aI0
aI0
aI0
aI0
aI0
aI20
aI10
aI0
aI30
aI0
aI0
aI0
aI0
aI10
aI0
aI0
aI0
aI0
aI10
aI0
aI0
aI0
aI0
aI0
aI5
aI0
aI30
aI0
aI0
aI0
aI5
aI0
aI0
aI0
aI0
aI0
aI0
aI0
aI0
aI0
aI0
aI0
aI10
aI0
aI0
aI0
aI0
aI0
aI0
aI0
aI0
aI0
aI0
aI0
aI0
aI30
aI0
aI0
aI0
aI0
aI0
aI5
aI25
aI0
aI0
aI0
aI10
aI0
aI0
aI0
aI20
aI0
aI0
aI25
aI5
aI0
aI0
aI0
aI0
aI5
aI0
aI5
aI10
aI0
aI0
aI0
aI0
aI0
aI0
aI0
aI0
aI0
aI0
aI0
aI0
aI0
aI0
aI0
aI20
aI0
aI30
aI0
aI0
aI0
aI0
aI0
aI0
aI0
aI0
aI0
aI0
aI0
aI15
aI0
aI0
aI5
aI0
aI0
aI0
aI0
aI0
aI0
aI0
aI0
aI0
aI10
aI0
aI0
aI10
aI0
aI0
aI0
aI0
aI0
aI0
aI0
aI0
aI0
aI0
aI0
aI0
aI0
aI0
aI0
aI0
aI0
aI5
aI0
aI0
aI0
aI0
aI0
aI0
aI0
aI0
aI0
aI0
aI0
aI0
aI0
aI0
aI0
aI0
aI0
aI0
aI0
aI0
aI0
aI0
aI0
aI0
aI0
aI0
aI0
aI0
aI0
aI0
aI0
aI0
aI15
aI0
aI15
aI0
aI5
aI0
aI0
aI0
aI0
aI0
aI5
aI0
aI0
aI10
aI0
aI0
aI10
aI0
aI0
aI0
aI0
aI0
aI0
aI0
aI0
aI0
aI0
aI0
aI0
aI0
aI0
aI0
aI0
aI0
aI20
aI0
aI0
aI0
aI20
aI20
aI0
aI0
aI0
aI0
aI0
aI0
aI0
aI0
aI0
aI20
aI0
aI0
aI10
aI25
aI0
aI0
aI0
aI0
aI0
aI0
aI0
aI0
aI0
aI0
aI0
aI0
aI0
aI0
aI0
aI0
aI0
aI0
aI5
aI10
aI0
aI15
aI0
aI0
aI0
aI0
aI0
aI0
aI0
aI0
aI0
aI15
aI0
aI0
aI0
aI0
aI0
aI0
aI15
aI0
aI15
aI0
aI0
aI0
aI0
aI0
aI5
aI0
aI0
aI0
aI0
aI0
aI0
aI0
aI0
aI0
aI10
aI0
aI0
aI0
aI0
aI0
aI10
aI0
aI15
aI30
aI0
aI0
aI0
aI0
aI0
aI0
aI0
aI0
aI0
aI0
aI0
aI0
aI0
aI0
aI0
aI0
aI0
aI25
aI0
aI0
aI0
aI0
aI30
aI0
aI0
aI0
aI0
aI10
aI0
aI10
aI0
aI0
aI30
aI0
aI0
aI25
aI200
aI0
aI0
aI0
aI5
aI0
aI0
aI10
aI0
aI0
aI0
aI0
aI0
aI15
aI0
aI0
aI5
aI0
aI0
aI0
aI0
aI0
aI0
aI0
aI0
aI0
aI0
aI0
aI20
aI0
aI0
aI0
aI0
aI0
aI0
aI0
aI15
aI0
aI0
aI10
aI0
aI0
aI0
aI0
aI5
aI0
aI15
aI0
aI0
aI0
aI0
aI0
aI0
aI0
aI20
aI0
aI5
aI0
aI15
aI0
aI5
aI0
aI0
aI0
aI0
aI0
aI0
aI25
aI0
aI0
aI0
aI0
aI10
aI0
aI0
aI0
aI0
aI0
aI0
aI0
aI10
aI0
aI0
aI15
aI0
aI0
aI15
aI0
aI25
aI200
aI0
aI0
aI0
aI0
aI0
aI0
aI0
aI0
aI0
aI0
aI0
aI0
aI0
aI0
aI0
aI0
aI0
aI30
aI0
aI15
aI0
aI25
aI5
aI0
aI0
aI0
aI0
aI20
aI5
aI0
aI0
aI15
aI0
aI0
aI0
aI0
aI0
aI0
aI0
aI0
aI0
aI0
aI0
aI0
aI0
aI0
aI0
aI5
aI0
aI0
aI0
aI0
aI0
aI0
aI0
aI5
aI0
aI0
aI0
aI0
aI0
aI0
aI15
aI0
aI0
aI20
aI30
aI0
aI10
aI0
aI0
aI0
aI0
aI10
aI20
aI0
aI0
aI0
aI0
aI0
aI0
aI0
aI0
aI0
aI0
aI0
aI0
aI30
aI0
aI0
aI0
aI0
aI0
aI0
aI25
aI0
aI5
aI0
aI0
aI0
aI0
aI0
aI10
aI0
aI0
aI10
aI20
aI0
aI15
aI0
aI0
aI0
aI0
aI0
aI0
aI0
aI0
aI15
aI0
aI5
aI0
aI0
aI25
aI0
aI0
aI0
aI0
aI0
aI0
aI15
aI0
aI0
aI0
aI15
aI0
aI0
aI0
aI30
aI0
aI0
aI0
aI0
aI0
aI15
aI0
aI0
aI5
aI20
aI0
aI0
aI0
aI0
aI0
aI5
aI25
aI0
aI0
aI0
aI0
aI0
aI25
aI0
aI25
aI0
aI0
aI0
aI0
aI5
aI0
aI0
aI0
aI0
aI0
aI0
aI0
aI0
aI0
aI0
aI0
aI0
aI0
aI0
aI20
aI0
aI0
aI0
aI0
aI0
aI0
aI0
aI0
aI0
aI0
aI0
aI10
aI0
aI0
aI0
aI0
aI25
aI0
aI25
aI0
aI0
aI0
aI25
aI30
aI0
aI30
aI0
aI0
aI0
aI0
aI0
aI15
aI0
aI0
aI0
aI0
aI5
aI0
aI15
aI0
aI0
aI0
aI0
aI0
aI0
aI0
aI0
aI20
aI20
aI0
aI0
aI10
aI0
aI0
aI0
aI0
aI25
aI0
aI0
aI20
aI0
aI0
aI0
aI0
aI0
aI0
aI15
aI0
aI0
aI30
aI0
aI0
aI0
aI0
aI10
aI0
aI0
aI0
aI0
aI20
aI0
aI0
aI0
aI0
aI0
aI0
aI0
aI20
aI0
aI0
aI0
aI0
aI0
aI0
aI0
aI10
aI0
aI0
aI0
aI0
aI25
aI0
aI25
aI0
aI0
aI0
aI5
aI0
aI20
aI0
aI0
aI0
aI0
aI0
aI0
aI0
aI0
aI15
aI0
aI0
aI30
aI0
aI0
aI30
aI0
aI0
aI0
aI0
aI0
aI0
aI0
aI0
aI20
aI0
aI0
aI0
aI0
aI0
aI0
aI0
aI0
aI0
aI0
aI0
aI0
aI0
aI0
aI15
aI0
aI0
aI0
aI0
aI0
aI0
aI0
aI25
aI0
aI0
aI0
aI0
aI15
aI0
aI15
aI0
aI0
aI15
aI0
aI0
aI0
aI0
aI0
aI0
aI30
aI0
aI0
aI0
aI0
aI0
aI0
aI0
aI0
aI15
aI0
aI0
aI25
aI5
aI0
aI0
aI15
aI0
aI0
aI0
aI0
aI0
aI0
aI0
aI0
aI0
aI15
aI0
aI25
aI0
aI0
aI0
aI0
aI0
aI0
aI0
aI15
aI0
aI0
aI0
aI0
aI0
aI5
aI0
aI0
aI200
aI25
aI10
aI10
aI0
aI30
aI0
aI0
aI0
aI0
aI0
aI0
aI15
aI0
aI0
aI0
aI0
aI0
aI0
aI0
aI0
aI0
aI0
aI0
aI0
aI0
aI0
aI20
aI0
aI0
aI0
aI20
aI0
aI5
aI0
aI0
aI10
aI0
aI0
aI0
aI0
aI25
aI15
aI25
aI0
aI10
aI0
aI0
aI0
aI0
aI0
aI0
aI0
aI0
aI0
aI0
aI0
aI0
aI0
aI0
aI0
aI0
aI0
aI0
aI0
aI0
aI0
aI0
aI0
aI0
aI0
aI0
aI0
aI0
aI25
aI0
aI0
aI30
aI0
aI0
aI0
aI0
aI0
aI0
aI0
aI20
aI0
aI0
aI0
aI0
aI0
aI0
aI0
aI0
aI0
aI0
aI0
aI0
aI0
aI0
aI0
aI0
aI0
aI0
aI0
aI0
aI0
aI0
aI0
aI0
aI0
aI0
aI0
aI0
aI15
aI0
aI0
aI0
aI15
aI0
aI30
aI0
aI0
aI0
aI0
aI0
aI0
aI0
aI0
aI5
aI0
aI20
aI0
aI20
aI0
aI0
aI0
aI0
aI0
aI0
aI0
aI0
aI0
aI0
aI0
aI0
aI0
aI0
aI0
aI15
aI0
aI0
aI0
aI0
aI0
aI0
aI0
aI0
aI0
aI25
aI0
aI15
aI0
aI0
aI0
aI0
aI0
aI0
aI0
aI0
aI0
aI0
aI0
aI0
aI0
aI0
aI15
aI0
aI0
aI0
aI0
aI5
aI200
aI0
aI20
aI0
aI0
aI0
aI0
aI0
aI0
aI0
aI0
aI0
aI25
aI0
aI0
aI0
aI0
aI30
aI0
aI0
aI0
aI25
aI10
aI0
aI0
aI0
aI0
aI0
aI0
aI0
aI0
aI0
aI0
aI30
aI0
aI0
aI0
aI30
aI0
aI0
aI0
aI15
aI0
aI0
aI0
aI0
aI10
aI25
aI0
aI0
aI0
aI25
aI0
aI0
aI0
aI0
aI0
aI0
aI0
aI0
aI0
aI0
aI0
aI5
aI5
aI0
aI30
aI0
aI0
aI0
aI0
aI0
aI0
aI0
aI20
aI0
aI0
aI0
aI0
aI0
aI0
aI0
aI0
aI0
aI0
aI0
aI0
aI15
aI0
aI0
aI0
aI0
aI0
aI0
aI0
aI0
aI0
aI0
aI0
aI0
aI0
aI5
aI0
aI0
aI0
aI0
aI0
aI0
aI20
aI0
aI10
aI0
aI0
aI0
aI0
aI0
aI0
aI0
aI10
aI0
aI0
aI0
aI5
aI0
aI0
aI0
aI0
aI0
aI0
aI5
aI0
aI0
aI0
aI0
aI0
aI0
aI0
aI0
aI0
aI0
aI0
aI25
aI0
aI5
aI0
aI0
aI0
aI0
aI0
aI0
aI0
aI0
aI0
aI0
aI0
aI0
aI0
aI0
aI0
aI15
aI0
aI0
aI5
aI0
aI0
aI25
aI0
aI0
aI0
aI0
aI0
aI0
aI5
aI0
aI0
aI0
aI0
aI0
aI0
aI0
aI0
aI25
aI0
aI0
aI0
aI10
aI0
aI0
aI0
aI15
aI0
aI0
aI0
aI0
aI0
aI0
aI5
aI30
aI0
aI5
aI15
aI5
aI0
aI15
aI0
aI0
aI0
aI0
aI0
aI0
aI0
aI0
aI0
aI0
aI0
aI0
aI0
aI0
aI5
aI0
aI0
aI0
aI0
aI0
aI0
aI10
aI0
aI0
aI20
aI0
aI0
aI20
aI0
aI0
aI0
aI0
aI0
aI0
aI5
aI0
aI0
aI20
aI0
aI0
aI0
aI0
aI0
aI0
aI0
aI0
aI0
aI0
aI0
aI0
aI0
aI0
aI0
aI0
aI10
aI10
aI20
aI0
aI0
aI15
aI0
aI0
aI10
aI0
aI0
aI10
aI0
aI10
aI0
aI0
aI0
aI0
aI15
aI10
aI0
aI15
aI0
aI0
aI0
aI0
aI0
aI0
aI0
aI0
aI0
aI0
aI15
aI0
aI0
aI0
aI0
aI0
aI0
aI0
aI0
aI0
aI0
aI0
aI0
aI0
aI0
aI0
aI0
aI0
aI0
aI0
aI0
aI0
aI0
aI0
aI0
aI10
aI15
aI0
aI0
aI0
aI0
aI0
aI0
aI0
aI0
aI0
aI0
aI0
aI0
aI10
aI15
aI0
aI0
aI0
aI0
aI200
aI0
aI0
aI0
aI0
aI0
aI0
aI0
aI0
aI10
aI0
aI0
aI0
aI0
aI0
aI10
aI0
aI5
aI0
aI0
aI0
aI0
aI0
aI0
aI0
aI0
aI0
aI0
aI0
aI15
aI0
aI0
aI0
aI0
aI0
aI0
aI0
aI0
aI0
aI5
aI5
aI20
aI0
aI30
aI0
aI0
aI0
aI0
aI0
aI0
aI0
aI0
aI0
aI20
aI0
aI0
aI0
aI0
aI0
aI0
aI0
aI0
aI0
aI0
aI0
aI0
aI0
aI0
aI0
aI15
aI0
aI0
aI0
aI0
aI15
aI0
aI10
aI0
aI0
aI0
aI0
aI0
aI0
aI0
aI0
aI0
aI0
aI0
aI0
aI0
aI0
aI0
aI0
aI0
aI10
aI0
aI0
aI20
aI0
aI0
aI0
aI0
aI0
aI0
aI0
aI0
aI0
aI0
aI0
aI0
aI15
aI0
aI0
aI0
aI0
aI0
aI0
aI0
aI0
aI0
aI0
aI0
aI0
aI0
aI0
aI0
aI0
aI0
aI0
aI0
aI0
aI0
aI5
aI0
aI0
aI10
aI0
aI0
aI10
aI0
aI0
aI0
aI0
aI0
aI15
aI0
aI0
aI0
aI20
aI0
aI10
aI0
aI0
aI0
aI0
aI0
aI0
aI0
aI0
aI0
aI0
aI0
aI0
aI0
aI0
aI0
aI0
aI0
aI0
aI5
aI0
aI15
aI0
aI0
aI0
aI0
aI20
aI0
aI0
aI0
aI0
aI0
aI0
aI0
aI0
aI0
aI5
aI15
aI0
aI0
aI0
aI0
aI0
aI5
aI0
aI0
aI0
aI0
aI0
aI0
aI0
aI0
aI0
aI0
aI15
aI0
aI0
aI20
aI0
aI0
aI0
aI0
aI0
aI0
aI0
aI0
aI0
aI0
aI0
aI0
aI0
aI10
aI0
aI0
aI0
aI15
aI0
aI0
aI0
aI0
aI0
aI5
aI15
aI0
aI0
aI0
aI15
aI0
aI10
aI0
aI25
aI5
aI0
aI0
aI0
aI0
aI0
aI0
aI0
aI15
aI0
aI25
aI0
aI15
aI0
aI0
aI0
aI0
aI0
aI10
aI0
aI0
aI0
aI0
aI0
aI0
aI0
aI0
aI5
aI25
aI0
aI0
aI0
aI0
aI0
aI0
aI0
aI15
aI0
aI5
aI0
aI0
aI0
aI0
aI0
aI0
aI0
aI0
aI0
aI0
aI10
aI0
aI0
aI0
aI0
aI15
aI0
aI0
aI0
aI0
aI0
aI0
aI0
aI0
aI10
aI0
aI15
aI20
aI0
aI0
aI0
aI0
aI0
aI0
aI0
aI0
aI5
aI0
aI5
aI0
aI0
aI0
aI0
aI15
aI0
aI0
aI0
aI10
aI15
aI15
aI15
aI0
aI0
aI20
aI0
aI0
aI0
aI0
aI15
aI5
aI0
aI5
aI0
aI0
aI0
aI0
aI0
aI0
aI30
aI0
aI0
aI15
aI25
aI0
aI0
aI0
aI0
aI0
aI0
aI0
aI0
aI0
aI0
aI0
aI0
aI0
aI0
aI0
aI0
aI0
aI0
aI0
aI0
aI0
aI0
aI0
aI5
aI0
aI0
aI0
aI0
aI25
aI0
aI0
aI0
aI0
aI0
aI0
aI0
aI0
aI0
aI0
aI0
aI0
aI25
aI0
aI0
aI0
aI0
aI0
aI0
aI0
aI0
aI0
aI10
aI0
aI0
aI0
aI15
aI0
aI20
aI0
aI0
aI0
aI0
aI0
aI0
aI0
aI0
aI0
aI0
aI0
aI0
aI0
aI0
aI0
aI0
aI0
aI0
aI0
aI0
aI0
aI0
aI0
aI0
aI0
aI0
aI0
aI0
aI0
aI10
aI0
aI0
aI0
aI0
aI0
aI0
aI0
aI0
aI0
aI0
aI0
aI0
aI5
aI0
aI25
aI0
aI5
aI0
aI0
aI0
aI0
aI0
aI0
aI0
aI0
aI0
aI0
aI0
aI0
aI0
aI0
aI0
aI0
aI0
aI0
aI0
aI0
aI0
aI15
aI0
aI0
aI0
aI0
aI0
aI0
aI0
aI0
aI0
aI0
aI0
aI0
aI0
aI0
aI0
aI0
aI10
aI0
aI0
aI0
aI0
aI20
aI0
aI5
aI0
aI10
aI0
aI0
aI0
aI0
aI0
aI15
aI0
aI15
aI0
aI0
aI0
aI0
aI0
aI10
aI0
aI0
aI0
aI0
aI0
aI0
aI0
aI0
aI0
aI0
aI0
aI0
aI0
aI0
aI0
aI0
aI0
aI0
aI0
aI0
aI0
aI0
aI0
aI0
aI5
aI0
aI5
aI0
aI0
aI0
aI0
aI0
aI0
aI0
aI0
aI0
aI0
aI0
aI0
aI0
aI0
aI10
aI0
aI0
aI25
aI5
aI0
aI0
aI0
aI0
aI25
aI0
aI0
aI0
aI0
aI0
aI0
aI0
aI0
aI0
aI0
aI0
aI0
aI0
aI0
aI0
aI0
aI0
aI0
aI10
aI0
aI0
aI0
aI0
aI0
aI0
aI0
aI0
aI0
aI0
aI0
aI0
aI0
aI0
aI0
aI0
aI0
aI0
aI0
aI0
aI0
aI0
aI0
aI0
aI0
aI0
aI0
aI0
aI0
aI0
aI0
aI0
aI0
aI0
aI0
aI0
aI0
aI0
aI10
aI0
aI0
aI0
aI0
aI0
aI0
aI0
aI0
aI0
aI0
aI10
aI0
aI0
aI0
aI0
aI0
aI0
aI0
aI0
aI15
aI0
aI0
aI0
aI0
aI10
aI0
aI0
aI0
aI15
aI0
aI20
aI0
aI0
aI0
aI0
aI0
aI0
aI0
aI0
aI0
aI0
aI0
aI0
aI0
aI0
aI25
aI0
aI0
aI0
aI0
aI0
aI0
aI0
aI0
aI0
aI0
aI0
aI0
aI0
aI0
aI25
aI5
aI0
aI0
aI0
aI0
aI0
aI0
aI15
aI0
aI10
aI0
aI0
aI0
aI0
aI0
aI0
aI0
aI0
aI0
aI0
aI0
aI5
aI0
aI0
aI0
aI25
aI0
aI0
aI0
aI0
aI5
aI0
aI15
aI0
aI0
aI0
aI0
aI0
aI0
aI0
aI0
aI0
aI0
aI0
aI0
aI0
aI10
aI0
aI0
aI0
aI0
aI0
aI0
aI0
aI0
aI0
aI0
aI25
aI10
aI0
aI0
aI10
aI0
aI0
aI0
aI0
aI0
aI0
aI0
aI0
aI0
aI0
aI0
aI15
aI0
aI0
aI0
aI0
aI0
aI15
aI0
aI0
aI0
aI0
aI0
aI0
aI0
aI0
aI0
aI0
aI0
aI15
aI0
aI0
aI0
aI0
aI0
aI0
aI0
aI15
aI0
aI0
aI0
aI0
aI5
aI0
aI20
aI0
aI0
aI10
aI0
aI0
aI0
aI0
aI15
aI0
aI0
aI0
aI10
aI0
aI0
aI5
aI0
aI0
aI20
aI0
aI0
aI0
aI0
aI0
aI0
aI0
aI0
aI0
aI0
aI0
aI0
aI0
aI15
aI0
aI0
aI0
aI0
aI0
aI0
aI10
aI10
aI0
aI0
aI0
aI0
aI0
aI5
aI0
aI0
aI0
aI0
aI0
aI0
aI0
aI0
aI20
aI5
aI0
aI0
aI0
aI0
aI0
aI0
aI0
aI0
aI0
aI0
aI5
aI0
aI0
aI0
aI0
aI15
aI20
aI0
aI0
aI0
aI0
aI0
aI0
aI0
aI10
aI0
aI0
aI0
aI0
aI0
aI0
aI0
aI0
aI10
aI0
aI0
aI0
aI0
aI0
aI0
aI0
aI0
aI0
aI0
aI0
aI0
aI0
aI0
aI0
aI0
aI0
aI0
aI0
aI0
aI0
aI0
aI0
aI0
aI0
aI0
aI0
aI0
aI0
aI0
aI0
aI0
aI0
aI0
aI0
aI15
aI0
aI0
aI25
aI0
aI0
aI15
aI0
aI0
aI0
aI0
aI0
aI0
aI0
aI0
aI30
aI0
aI0
aI0
aI0
aI0
aI0
aI0
aI0
aI0
aI0
aI0
aI0
aI10
aI0
aI0
aI0
aI15
aI0
aI0
aI5
aI0
aI0
aI0
aI25
aI0
aI0
aI15
aI0
aI0
aI0
aI15
aI0
aI0
aI30
aI0
aI0
aI0
aI0
aI200
aI0
aI0
aI0
aI0
aI0
aI5
aI0
aI15
aI0
aI0
aI0
aI0
aI0
aI0
aI10
aI0
aI0
aI0
aI0
aI0
aI0
aI15
aI0
aI0
aI0
aI0
aI0
aI0
aI0
aI0
aI0
aI0
aI0
aI0
aI0
aI0
aI0
aI5
aI5
aI0
aI0
aI0
aI0
aI0
aI0
aI0
aI0
aI0
aI0
aI5
aI0
aI0
aI0
aI0
aI0
aI0
aI5
aI0
aI0
aI0
aI0
aI0
aI0
aI0
aI0
aI0
aI0
aI0
aI0
aI0
aI0
aI0
aI0
aI0
aI0
aI0
aI0
aI0
aI0
aI0
aI0
aI5
aI0
aI15
aI0
aI0
aI15
aI0
aI0
aI0
aI10
aI10
aI10
aI20
aI0
aI0
aI10
aI0
aI0
aI0
aI0
aI0
aI0
aI0
aI0
aI0
aI0
aI0
aI0
aI0
aI0
aI0
aI0
aI0
aI0
aI0
aI0
aI0
aI5
aI0
aI15
aI5
aI0
aI0
aI0
aI0
aI0
aI0
aI0
aI25
aI0
aI0
aI15
aI0
aI0
aI10
aI0
aI0
aI5
aI0
aI0
aI0
aI0
aI25
aI20
aI0
aI0
aI0
aI0
aI0
aI25
aI0
aI5
aI0
aI0
aI0
aI0
aI0
aI0
aI0
aI0
aI0
aI0
aI0
aI5
aI0
aI0
aI0
aI0
aI0
aI200
aI0
aI0
aI0
aI0
aI0
aI0
aI0
aI25
aI5
aI0
aI0
aI0
aI0
aI5
aI0
aI0
aI0
aI0
aI0
aI0
aI5
aI0
aI0
aI5
aI0
aI0
aI0
aI0
aI0
aI0
aI0
aI0
aI0
aI0
aI0
aI0
aI0
aI0
aI0
aI0
aI0
aI0
aI0
aI10
aI0
aI0
aI0
aI0
aI30
aI0
aI0
aI0
aI30
aI0
aI0
aI0
aI25
aI0
aI0
aI0
aI0
aI0
aI10
aI0
aI0
aI0
aI0
aI0
aI0
aI0
aI0
aI0
aI0
aI0
aI0
aI0
aI0
aI0
aI0
aI0
aI10
aI0
aI0
aI0
aI10
aI0
aI0
aI0
aI0
aI5
aI0
aI0
aI0
aI0
aI5
aI20
aI0
aI0
aI0
aI0
aI0
aI0
aI0
aI0
aI0
aI0
aI0
aI10
aI0
aI0
aI0
aI10
aI0
aI0
aI0
aI10
aI0
aI0
aI0
aI0
aI0
aI0
aI0
aI0
aI0
aI0
aI0
aI0
aI5
aI0
aI0
aI0
aI0
aI0
aI0
aI25
aI30
aI0
aI0
aI0
aI0
aI25
aI5
aI0
aI0
aI0
aI0
aI10
aI0
aI0
aI0
aI0
aI20
aI0
aI0
aI0
aI0
aI20
aI0
aI0
aI0
aI10
aI0
aI10
aI0
aI0
aI0
aI0
aI0
aI0
aI0
aI20
aI0
aI0
aI0
aI0
aI0
aI0
aI15
aI0
aI0
aI0
aI0
aI0
aI0
aI0
aI0
aI0
aI0
aI5
aI0
aI0
aI0
aI0
aI5
aI0
aI0
aI0
aI0
aI0
aI0
aI0
aI0
aI0
aI0
aI0
aI0
aI0
aI0
aI10
aI0
aI0
aI0
aI0
aI0
aI0
aI5
aI0
aI0
aI0
aI0
aI0
aI0
aI0
aI0
aI15
aI0
aI10
aI0
aI0
aI0
aI0
aI0
aI0
aI0
aI0
aI10
aI0
aI0
aI10
aI0
aI0
aI0
aI0
aI0
aI0
aI0
aI0
aI0
aI10
aI0
aI0
aI0
aI0
aI0
aI0
aI0
aI0
aI0
aI0
aI0
aI10
aI0
aI0
aI15
aI15
aI0
aI0
aI0
aI0
aI0
aI5
aI0
aI0
aI0
aI0
aI5
aI0
aI0
aI10
aI25
aI0
aI0
aI0
aI0
aI0
aI0
aI0
aI0
aI0
aI5
aI0
aI0
aI0
aI0
aI0
aI0
aI0
aI5
aI0
aI0
aI0
aI15
aI0
aI0
aI0
aI0
aI0
aI0
aI0
aI0
aI5
aI0
aI0
aI0
aI15
aI10
aI0
aI0
aI15
aI0
aI0
aI0
aI0
aI0
aI5
aI5
aI0
aI0
aI0
aI0
aI0
aI0
aI0
aI0
aI0
aI0
aI0
aI10
aI0
aI0
aI0
aI0
aI0
aI10
aI0
aI0
aI0
aI0
aI0
aI10
aI0
aI0
aI0
aI0
aI0
aI0
aI0
aI0
aI0
aI0
aI0
aI0
aI15
aI0
aI5
aI0
aI0
aI0
aI0
aI0
aI5
aI0
aI0
aI0
aI0
aI0
aI0
aI0
aI0
aI0
aI0
aI0
aI15
aI0
aI0
aI0
aI10
aI0
aI0
aI0
aI0
aI0
aI0
aI0
aI0
aI0
aI0
aI0
aI0
aI0
aI0
aI0
aI0
aI0
aI0
aI0
aI0
aI0
aI0
aI0
aI0
aI5
aI0
aI5
aI0
aI0
aI0
aI0
aI0
aI0
aI0
aI0
aI0
aI0
aI0
aI0
aI0
aI0
aI0
aI0
aI0
aI0
aI0
aI0
aI0
aI0
aI0
aI0
aI0
aI10
aI0
aI0
aI30
aI0
aI0
aI0
aI0
aI0
aI0
aI0
aI0
aI0
aI0
aI0
aI10
aI0
aI0
aI5
aI0
aI0
aI0
aI0
aI0
aI15
aI0
aI0
aI0
aI0
aI0
aI20
aI0
aI0
aI0
aI0
aI0
aI0
aI0
aI0
aI0
aI15
aI0
aI0
aI0
aI0
aI0
aI15
aI0
aI5
aI0
aI0
aI0
aI0
aI15
aI0
aI10
aI0
aI0
aI0
aI10
aI25
aI0
aI0
aI0
aI0
aI0
aI0
aI15
aI0
aI0
aI0
aI25
aI0
aI0
aI0
aI0
aI0
aI0
aI0
aI0
aI0
aI0
aI0
aI0
aI0
aI0
aI0
aI0
aI10
aI0
aI0
aI0
aI0
aI0
aI0
aI5
aI0
aI20
aI0
aI25
aI0
aI0
aI0
aI10
aI0
aI10
aI0
aI0
aI0
aI10
aI0
aI0
aI0
aI0
aI0
aI0
aI0
aI0
aI0
aI0
aI0
aI5
aI0
aI0
aI0
aI5
aI0
aI5
aI10
aI0
aI10
aI0
aI0
aI5
aI0
aI25
aI0
aI0
aI15
aI0
aI0
aI0
aI0
aI15
aI15
aI0
aI0
aI0
aI0
aI0
aI0
aI0
aI0
aI0
aI0
aI0
aI0
aI0
aI0
aI0
aI0
aI25
aI0
aI0
aI0
aI0
aI0
aI0
aI0
aI0
aI0
aI0
aI0
aI0
aI10
aI0
aI0
aI0
aI0
aI0
aI5
aI0
aI0
aI5
aI0
aI0
aI0
aI0
aI0
aI0
aI0
aI0
aI0
aI0
aI0
aI0
aI0
aI0
aI0
aI0
aI30
aI30
aI0
aI0
aI0
aI10
aI15
aI20
aI0
aI0
aI0
aI0
aI5
aI0
aI0
aI10
aI0
aI0
aI0
aI0
aI5
aI0
aI0
aI0
aI5
aI0
aI0
aI0
aI0
aI0
aI0
aI25
aI0
aI0
aI0
aI0
aI0
aI0
aI0
aI0
aI10
aI0
aI0
aI0
aI0
aI0
aI0
aI0
aI0
aI0
aI10
aI0
aI0
aI0
aI20
aI20
aI0
aI0
aI0
aI0
aI0
aI0
aI0
aI0
aI0
aI0
aI0
aI0
aI0
aI0
aI0
aI0
aI0
aI0
aI0
aI0
aI10
aI0
aI0
aI0
aI15
aI0
aI0
aI0
aI0
aI0
aI0
aI0
aI0
aI25
aI0
aI0
aI5
aI0
aI0
aI0
aI0
aI0
aI0
aI15
aI15
aI0
aI0
aI0
aI0
aI0
aI0
aI0
aI0
aI0
aI0
aI0
aI0
aI0
aI0
aI0
aI0
aI0
aI0
aI0
aI5
aI0
aI10
aI0
aI0
aI0
aI0
aI15
aI0
aI0
aI0
aI0
aI0
aI0
aI0
aI5
aI20
aI0
aI0
aI0
aI10
aI15
aI0
aI0
aI0
aI0
aI15
aI0
aI0
aI0
aI0
aI0
aI0
aI0
aI0
aI0
aI0
aI0
aI0
aI0
aI5
aI5
aI0
aI25
aI5
aI5
aI0
aI0
aI0
aI0
aI0
aI0
aI0
aI0
aI0
aI0
aI0
aI0
aI10
aI10
aI0
aI0
aI5
aI0
aI0
aI0
aI0
aI0
aI0
aI0
aI0
aI0
aI0
aI10
aI0
aI0
aI0
aI0
aI0
aI0
aI30
aI0
aI0
aI0
aI0
aI5
aI0
aI0
aI0
aI0
aI0
aI0
aI0
aI0
aI0
aI0
aI0
aI0
aI0
aI0
aI0
aI0
aI0
aI0
aI0
aI10
aI0
aI0
aI0
aI0
aI0
aI0
aI0
aI0
aI30
aI0
aI0
aI0
aI0
aI10
aI10
aI5
aI0
aI0
aI0
aI30
aI0
aI20
aI0
aI15
aI10
aI5
aI0
aI0
aI0
aI0
aI0
aI0
aI10
aI0
aI0
aI0
aI0
aI0
aI5
aI0
aI0
aI0
aI0
aI0
aI0
aI15
aI0
aI10
aI15
aI0
aI0
aI15
aI0
aI0
aI0
aI0
aI0
aI0
aI0
aI0
aI25
aI0
aI0
aI0
aI0
aI0
aI0
aI0
aI0
aI0
aI0
aI0
aI0
aI0
aI0
aI0
aI0
aI0
aI0
aI30
aI0
aI0
aI5
aI0
aI0
aI0
aI0
aI0
aI0
aI0
aI0
aI0
aI0
aI0
aI0
aI0
aI10
aI0
aI0
aI0
aI0
aI0
aI0
aI0
aI10
aI0
aI5
aI15
aI0
aI0
aI0
aI0
aI0
aI0
aI0
aI0
aI0
aI0
aI0
aI0
aI0
aI0
aI0
aI0
aI0
aI0
aI0
aI0
aI0
aI0
aI0
aI0
aI0
aI0
aI0
aI0
aI0
aI0
aI0
aI0
aI0
aI0
aI0
aI10
aI0
aI0
aI30
aI5
aI0
aI0
aI0
aI0
aI0
aI15
aI0
aI0
aI0
aI0
aI0
aI0
aI0
aI0
aI0
aI0
aI0
aI0
aI0
aI0
aI0
aI0
aI0
aI0
aI0
aI0
aI0
aI0
aI0
aI0
aI0
aI0
aI0
aI20
aI0
aI0
aI0
aI0
aI0
aI25
aI0
aI5
aI0
aI5
aI0
aI0
aI0
aI15
aI0
aI0
aI0
aI0
aI0
aI0
aI0
aI0
aI0
aI0
aI0
aI0
aI0
aI0
aI0
aI0
aI0
aI0
aI25
aI0
aI0
aI0
aI0
aI0
aI0
aI25
aI0
aI0
aI0
aI0
aI0
aI0
aI0
aI0
aI0
aI10
aI0
aI0
aI0
aI5
aI0
aI0
aI0
aI0
aI0
aI15
aI0
aI0
aI0
aI0
aI0
aI0
aI0
aI0
aI20
aI0
aI0
aI5
aI0
aI0
aI10
aI0
aI25
aI0
aI0
aI0
aI5
aI15
aI0
aI15
aI0
aI0
aI0
aI0
aI0
aI0
aI0
aI0
aI0
aI0
aI0
aI10
aI15
aI0
aI0
aI10
aI0
aI0
aI20
aI0
aI0
aI15
aI0
aI0
aI0
aI0
aI0
aI10
aI15
aI0
aI0
aI0
aI0
aI0
aI0
aI0
aI0
aI0
aI0
aI25
aI5
aI0
aI20
aI0
aI0
aI0
aI0
aI0
aI0
aI0
aI0
aI0
aI0
aI0
aI0
aI0
aI15
aI0
aI0
aI0
aI0
aI0
aI0
aI0
aI0
aI25
aI0
aI0
aI0
aI0
aI0
aI0
aI0
aI0
aI0
aI20
aI0
aI0
aI0
aI0
aI25
aI0
aI25
aI0
aI0
aI0
aI5
aI0
aI0
aI0
aI0
aI5
aI0
aI0
aI15
aI0
aI0
aI0
aI0
aI0
aI0
aI30
aI0
aI0
aI0
aI0
aI0
aI0
aI0
aI0
aI0
aI0
aI0
aI10
aI0
aI0
aI0
aI0
aI0
asS't'
I7010000
sS'game_num'
p9
I3260
s.